

Microchip MPLAB XC8 Assembler V2.20 build 20200408173844 
                                                                                               Sun Nov 08 19:25:40 2020

Microchip MPLAB XC8 C Compiler v2.20 (Free license) build 20200408173844 Og1 
     1                           	processor	16F1946
     2                           	pagewidth 120
     3                           	opt	flic
     4                           	psect	idataCOMMON,global,class=CODE,delta=2,noexec
     5                           	psect	idataBANK0,global,class=CODE,delta=2,noexec
     6                           	psect	idataBANK1,global,class=CODE,delta=2,noexec
     7                           	psect	cinit,global,class=CODE,merge=1,delta=2
     8                           	psect	bssCOMMON,global,class=COMMON,space=1,delta=1,noexec
     9                           	psect	dataCOMMON,global,class=COMMON,space=1,delta=1,noexec
    10                           	psect	bssBANK0,global,class=BANK0,space=1,delta=1,noexec
    11                           	psect	dataBANK0,global,class=BANK0,space=1,delta=1,noexec
    12                           	psect	bssBANK1,global,class=BANK1,space=1,delta=1,noexec
    13                           	psect	dataBANK1,global,class=BANK1,space=1,delta=1,noexec
    14                           	psect	inittext,global,class=CODE,delta=2
    15                           	psect	clrtext,global,class=CODE,delta=2
    16                           	psect	cstackCOMMON,global,class=COMMON,space=1,delta=1,noexec
    17                           	psect	cstackBANK0,global,class=BANK0,space=1,delta=1,noexec
    18                           	psect	maintext,global,class=CODE,merge=1,split=1,delta=2
    19                           	psect	text1,local,class=CODE,merge=1,delta=2
    20                           	psect	text2,local,class=CODE,merge=1,delta=2
    21                           	psect	text3,local,class=CODE,merge=1,delta=2
    22                           	psect	text4,local,class=CODE,merge=1,delta=2,group=1
    23                           	psect	text5,local,class=CODE,merge=1,delta=2,group=1
    24                           	psect	text6,local,class=CODE,merge=1,delta=2
    25                           	psect	text7,local,class=CODE,merge=1,delta=2
    26                           	psect	text8,local,class=CODE,merge=1,delta=2
    27                           	psect	text9,local,class=CODE,merge=1,delta=2
    28                           	psect	text10,local,class=CODE,merge=1,delta=2
    29                           	psect	text11,local,class=CODE,merge=1,delta=2
    30                           	psect	intentry,global,class=CODE,delta=2
    31                           	psect	text13,local,class=CODE,merge=1,delta=2
    32                           	psect	text14,local,class=CODE,merge=1,delta=2
    33                           	psect	config,global,abs,ovrld,class=CONFIG,space=4,delta=2,noexec
    34                           	dabs	1,0x7E,2
    35  0000                     
    36                           ; Version 2.20
    37                           ; Generated 12/02/2020 GMT
    38                           ; 
    39                           ; Copyright © 2020, Microchip Technology Inc. and its subsidiaries ("Microchip")
    40                           ; All rights reserved.
    41                           ; 
    42                           ; This software is developed by Microchip Technology Inc. and its subsidiaries ("Microch
      +                          ip").
    43                           ; 
    44                           ; Redistribution and use in source and binary forms, with or without modification, are
    45                           ; permitted provided that the following conditions are met:
    46                           ; 
    47                           ;     1. Redistributions of source code must retain the above copyright notice, this lis
      +                          t of
    48                           ;        conditions and the following disclaimer.
    49                           ; 
    50                           ;     2. Redistributions in binary form must reproduce the above copyright notice, this 
      +                          list
    51                           ;        of conditions and the following disclaimer in the documentation and/or other
    52                           ;        materials provided with the distribution.
    53                           ; 
    54                           ;     3. Microchip's name may not be used to endorse or promote products derived from th
      +                          is
    55                           ;        software without specific prior written permission.
    56                           ; 
    57                           ; THIS SOFTWARE IS PROVIDED BY MICROCHIP "AS IS" AND ANY EXPRESS OR IMPLIED WARRANTIES,
    58                           ; INCLUDING, BUT NOT LIMITED TO, THE IMPLIED WARRANTIES OF MERCHANTABILITY AND FITNESS F
      +                          OR
    59                           ; PURPOSE ARE DISCLAIMED.  IN NO EVENT SHALL MICROCHIP BE LIABLE FOR ANY DIRECT, INDIREC
      +                          T,
    60                           ; INCIDENTAL, SPECIAL, EXEMPLARY, OR CONSEQUENTIAL DAMAGES (INCLUDING BUT NOT LIMITED TO
    61                           ; PROCUREMENT OF SUBSTITUTE GOODS OR SERVICES; LOSS OF USE, DATA OR PROFITS; OR BUSINESS
    62                           ; INTERRUPTION) HOWSOEVER CAUSED AND ON ANY THEORY OF LIABILITY, WHETHER IN CONTRACT, ST
      +                          RICT
    63                           ; LIABILITY, OR TORT (INCLUDING NEGLIGENCE OR OTHERWISE) ARISING IN ANY WAY OUT OF THE U
      +                          SE OF
    64                           ; THIS SOFTWARE, EVEN IF ADVISED OF THE POSSIBILITY OF SUCH DAMAGE.
    65                           ; 
    66                           ; 
    67                           ; Code-generator required, PIC16F1946 Definitions
    68                           ; 
    69                           ; SFR Addresses
    70  0000                     	;# 
    71  0001                     	;# 
    72  0002                     	;# 
    73  0003                     	;# 
    74  0004                     	;# 
    75  0005                     	;# 
    76  0006                     	;# 
    77  0007                     	;# 
    78  0008                     	;# 
    79  0009                     	;# 
    80  000A                     	;# 
    81  000B                     	;# 
    82  000C                     	;# 
    83  000D                     	;# 
    84  000E                     	;# 
    85  000F                     	;# 
    86  0010                     	;# 
    87  0011                     	;# 
    88  0012                     	;# 
    89  0013                     	;# 
    90  0014                     	;# 
    91  0015                     	;# 
    92  0016                     	;# 
    93  0016                     	;# 
    94  0017                     	;# 
    95  0018                     	;# 
    96  0019                     	;# 
    97  001A                     	;# 
    98  001B                     	;# 
    99  001C                     	;# 
   100  001E                     	;# 
   101  001F                     	;# 
   102  008C                     	;# 
   103  008D                     	;# 
   104  008E                     	;# 
   105  008F                     	;# 
   106  0090                     	;# 
   107  0091                     	;# 
   108  0092                     	;# 
   109  0093                     	;# 
   110  0094                     	;# 
   111  0095                     	;# 
   112  0096                     	;# 
   113  0097                     	;# 
   114  0098                     	;# 
   115  0099                     	;# 
   116  009A                     	;# 
   117  009B                     	;# 
   118  009B                     	;# 
   119  009C                     	;# 
   120  009D                     	;# 
   121  009E                     	;# 
   122  010C                     	;# 
   123  010D                     	;# 
   124  010E                     	;# 
   125  010F                     	;# 
   126  0110                     	;# 
   127  0111                     	;# 
   128  0112                     	;# 
   129  0113                     	;# 
   130  0114                     	;# 
   131  0115                     	;# 
   132  0116                     	;# 
   133  0117                     	;# 
   134  0118                     	;# 
   135  0119                     	;# 
   136  011A                     	;# 
   137  011B                     	;# 
   138  011D                     	;# 
   139  011E                     	;# 
   140  011F                     	;# 
   141  018C                     	;# 
   142  0190                     	;# 
   143  0191                     	;# 
   144  0191                     	;# 
   145  0192                     	;# 
   146  0193                     	;# 
   147  0193                     	;# 
   148  0193                     	;# 
   149  0194                     	;# 
   150  0195                     	;# 
   151  0196                     	;# 
   152  0199                     	;# 
   153  0199                     	;# 
   154  019A                     	;# 
   155  019A                     	;# 
   156  019B                     	;# 
   157  019B                     	;# 
   158  019B                     	;# 
   159  019B                     	;# 
   160  019C                     	;# 
   161  019C                     	;# 
   162  019D                     	;# 
   163  019D                     	;# 
   164  019E                     	;# 
   165  019E                     	;# 
   166  019F                     	;# 
   167  020D                     	;# 
   168  0211                     	;# 
   169  0211                     	;# 
   170  0212                     	;# 
   171  0212                     	;# 
   172  0213                     	;# 
   173  0213                     	;# 
   174  0214                     	;# 
   175  0214                     	;# 
   176  0215                     	;# 
   177  0215                     	;# 
   178  0215                     	;# 
   179  0216                     	;# 
   180  0216                     	;# 
   181  0217                     	;# 
   182  0217                     	;# 
   183  0219                     	;# 
   184  021A                     	;# 
   185  021B                     	;# 
   186  021C                     	;# 
   187  021D                     	;# 
   188  021E                     	;# 
   189  021F                     	;# 
   190  028C                     	;# 
   191  028D                     	;# 
   192  0291                     	;# 
   193  0291                     	;# 
   194  0292                     	;# 
   195  0293                     	;# 
   196  0294                     	;# 
   197  0295                     	;# 
   198  0295                     	;# 
   199  0296                     	;# 
   200  0298                     	;# 
   201  0298                     	;# 
   202  0299                     	;# 
   203  029A                     	;# 
   204  029B                     	;# 
   205  029C                     	;# 
   206  029C                     	;# 
   207  029D                     	;# 
   208  029E                     	;# 
   209  029F                     	;# 
   210  030C                     	;# 
   211  030D                     	;# 
   212  0311                     	;# 
   213  0311                     	;# 
   214  0312                     	;# 
   215  0313                     	;# 
   216  0314                     	;# 
   217  0315                     	;# 
   218  0315                     	;# 
   219  0316                     	;# 
   220  0318                     	;# 
   221  0318                     	;# 
   222  0319                     	;# 
   223  031A                     	;# 
   224  031C                     	;# 
   225  031C                     	;# 
   226  031D                     	;# 
   227  031E                     	;# 
   228  038C                     	;# 
   229  038D                     	;# 
   230  0394                     	;# 
   231  0395                     	;# 
   232  0396                     	;# 
   233  040C                     	;# 
   234  040D                     	;# 
   235  0415                     	;# 
   236  0416                     	;# 
   237  0417                     	;# 
   238  041C                     	;# 
   239  041D                     	;# 
   240  041E                     	;# 
   241  048D                     	;# 
   242  0491                     	;# 
   243  0492                     	;# 
   244  0493                     	;# 
   245  0493                     	;# 
   246  0494                     	;# 
   247  0495                     	;# 
   248  0496                     	;# 
   249  0497                     	;# 
   250  0791                     	;# 
   251  0792                     	;# 
   252  0793                     	;# 
   253  0794                     	;# 
   254  0795                     	;# 
   255  0798                     	;# 
   256  0799                     	;# 
   257  079A                     	;# 
   258  079B                     	;# 
   259  079C                     	;# 
   260  079D                     	;# 
   261  07A0                     	;# 
   262  07A1                     	;# 
   263  07A2                     	;# 
   264  07A3                     	;# 
   265  07A4                     	;# 
   266  07A5                     	;# 
   267  07A6                     	;# 
   268  07A7                     	;# 
   269  07A8                     	;# 
   270  07A9                     	;# 
   271  07AA                     	;# 
   272  07AB                     	;# 
   273  07AC                     	;# 
   274  07AD                     	;# 
   275  07AE                     	;# 
   276  07AF                     	;# 
   277  07B0                     	;# 
   278  07B1                     	;# 
   279  07B2                     	;# 
   280  07B3                     	;# 
   281  07B4                     	;# 
   282  07B5                     	;# 
   283  07B6                     	;# 
   284  07B7                     	;# 
   285  0FE4                     	;# 
   286  0FE5                     	;# 
   287  0FE6                     	;# 
   288  0FE7                     	;# 
   289  0FE8                     	;# 
   290  0FE9                     	;# 
   291  0FEA                     	;# 
   292  0FEB                     	;# 
   293  0FED                     	;# 
   294  0FEE                     	;# 
   295  0FEF                     	;# 
   296  0000                     	;# 
   297  0001                     	;# 
   298  0002                     	;# 
   299  0003                     	;# 
   300  0004                     	;# 
   301  0005                     	;# 
   302  0006                     	;# 
   303  0007                     	;# 
   304  0008                     	;# 
   305  0009                     	;# 
   306  000A                     	;# 
   307  000B                     	;# 
   308  000C                     	;# 
   309  000D                     	;# 
   310  000E                     	;# 
   311  000F                     	;# 
   312  0010                     	;# 
   313  0011                     	;# 
   314  0012                     	;# 
   315  0013                     	;# 
   316  0014                     	;# 
   317  0015                     	;# 
   318  0016                     	;# 
   319  0016                     	;# 
   320  0017                     	;# 
   321  0018                     	;# 
   322  0019                     	;# 
   323  001A                     	;# 
   324  001B                     	;# 
   325  001C                     	;# 
   326  001E                     	;# 
   327  001F                     	;# 
   328  008C                     	;# 
   329  008D                     	;# 
   330  008E                     	;# 
   331  008F                     	;# 
   332  0090                     	;# 
   333  0091                     	;# 
   334  0092                     	;# 
   335  0093                     	;# 
   336  0094                     	;# 
   337  0095                     	;# 
   338  0096                     	;# 
   339  0097                     	;# 
   340  0098                     	;# 
   341  0099                     	;# 
   342  009A                     	;# 
   343  009B                     	;# 
   344  009B                     	;# 
   345  009C                     	;# 
   346  009D                     	;# 
   347  009E                     	;# 
   348  010C                     	;# 
   349  010D                     	;# 
   350  010E                     	;# 
   351  010F                     	;# 
   352  0110                     	;# 
   353  0111                     	;# 
   354  0112                     	;# 
   355  0113                     	;# 
   356  0114                     	;# 
   357  0115                     	;# 
   358  0116                     	;# 
   359  0117                     	;# 
   360  0118                     	;# 
   361  0119                     	;# 
   362  011A                     	;# 
   363  011B                     	;# 
   364  011D                     	;# 
   365  011E                     	;# 
   366  011F                     	;# 
   367  018C                     	;# 
   368  0190                     	;# 
   369  0191                     	;# 
   370  0191                     	;# 
   371  0192                     	;# 
   372  0193                     	;# 
   373  0193                     	;# 
   374  0193                     	;# 
   375  0194                     	;# 
   376  0195                     	;# 
   377  0196                     	;# 
   378  0199                     	;# 
   379  0199                     	;# 
   380  019A                     	;# 
   381  019A                     	;# 
   382  019B                     	;# 
   383  019B                     	;# 
   384  019B                     	;# 
   385  019B                     	;# 
   386  019C                     	;# 
   387  019C                     	;# 
   388  019D                     	;# 
   389  019D                     	;# 
   390  019E                     	;# 
   391  019E                     	;# 
   392  019F                     	;# 
   393  020D                     	;# 
   394  0211                     	;# 
   395  0211                     	;# 
   396  0212                     	;# 
   397  0212                     	;# 
   398  0213                     	;# 
   399  0213                     	;# 
   400  0214                     	;# 
   401  0214                     	;# 
   402  0215                     	;# 
   403  0215                     	;# 
   404  0215                     	;# 
   405  0216                     	;# 
   406  0216                     	;# 
   407  0217                     	;# 
   408  0217                     	;# 
   409  0219                     	;# 
   410  021A                     	;# 
   411  021B                     	;# 
   412  021C                     	;# 
   413  021D                     	;# 
   414  021E                     	;# 
   415  021F                     	;# 
   416  028C                     	;# 
   417  028D                     	;# 
   418  0291                     	;# 
   419  0291                     	;# 
   420  0292                     	;# 
   421  0293                     	;# 
   422  0294                     	;# 
   423  0295                     	;# 
   424  0295                     	;# 
   425  0296                     	;# 
   426  0298                     	;# 
   427  0298                     	;# 
   428  0299                     	;# 
   429  029A                     	;# 
   430  029B                     	;# 
   431  029C                     	;# 
   432  029C                     	;# 
   433  029D                     	;# 
   434  029E                     	;# 
   435  029F                     	;# 
   436  030C                     	;# 
   437  030D                     	;# 
   438  0311                     	;# 
   439  0311                     	;# 
   440  0312                     	;# 
   441  0313                     	;# 
   442  0314                     	;# 
   443  0315                     	;# 
   444  0315                     	;# 
   445  0316                     	;# 
   446  0318                     	;# 
   447  0318                     	;# 
   448  0319                     	;# 
   449  031A                     	;# 
   450  031C                     	;# 
   451  031C                     	;# 
   452  031D                     	;# 
   453  031E                     	;# 
   454  038C                     	;# 
   455  038D                     	;# 
   456  0394                     	;# 
   457  0395                     	;# 
   458  0396                     	;# 
   459  040C                     	;# 
   460  040D                     	;# 
   461  0415                     	;# 
   462  0416                     	;# 
   463  0417                     	;# 
   464  041C                     	;# 
   465  041D                     	;# 
   466  041E                     	;# 
   467  048D                     	;# 
   468  0491                     	;# 
   469  0492                     	;# 
   470  0493                     	;# 
   471  0493                     	;# 
   472  0494                     	;# 
   473  0495                     	;# 
   474  0496                     	;# 
   475  0497                     	;# 
   476  0791                     	;# 
   477  0792                     	;# 
   478  0793                     	;# 
   479  0794                     	;# 
   480  0795                     	;# 
   481  0798                     	;# 
   482  0799                     	;# 
   483  079A                     	;# 
   484  079B                     	;# 
   485  079C                     	;# 
   486  079D                     	;# 
   487  07A0                     	;# 
   488  07A1                     	;# 
   489  07A2                     	;# 
   490  07A3                     	;# 
   491  07A4                     	;# 
   492  07A5                     	;# 
   493  07A6                     	;# 
   494  07A7                     	;# 
   495  07A8                     	;# 
   496  07A9                     	;# 
   497  07AA                     	;# 
   498  07AB                     	;# 
   499  07AC                     	;# 
   500  07AD                     	;# 
   501  07AE                     	;# 
   502  07AF                     	;# 
   503  07B0                     	;# 
   504  07B1                     	;# 
   505  07B2                     	;# 
   506  07B3                     	;# 
   507  07B4                     	;# 
   508  07B5                     	;# 
   509  07B6                     	;# 
   510  07B7                     	;# 
   511  0FE4                     	;# 
   512  0FE5                     	;# 
   513  0FE6                     	;# 
   514  0FE7                     	;# 
   515  0FE8                     	;# 
   516  0FE9                     	;# 
   517  0FEA                     	;# 
   518  0FEB                     	;# 
   519  0FED                     	;# 
   520  0FEE                     	;# 
   521  0FEF                     	;# 
   522  0000                     	;# 
   523  0001                     	;# 
   524  0002                     	;# 
   525  0003                     	;# 
   526  0004                     	;# 
   527  0005                     	;# 
   528  0006                     	;# 
   529  0007                     	;# 
   530  0008                     	;# 
   531  0009                     	;# 
   532  000A                     	;# 
   533  000B                     	;# 
   534  000C                     	;# 
   535  000D                     	;# 
   536  000E                     	;# 
   537  000F                     	;# 
   538  0010                     	;# 
   539  0011                     	;# 
   540  0012                     	;# 
   541  0013                     	;# 
   542  0014                     	;# 
   543  0015                     	;# 
   544  0016                     	;# 
   545  0016                     	;# 
   546  0017                     	;# 
   547  0018                     	;# 
   548  0019                     	;# 
   549  001A                     	;# 
   550  001B                     	;# 
   551  001C                     	;# 
   552  001E                     	;# 
   553  001F                     	;# 
   554  008C                     	;# 
   555  008D                     	;# 
   556  008E                     	;# 
   557  008F                     	;# 
   558  0090                     	;# 
   559  0091                     	;# 
   560  0092                     	;# 
   561  0093                     	;# 
   562  0094                     	;# 
   563  0095                     	;# 
   564  0096                     	;# 
   565  0097                     	;# 
   566  0098                     	;# 
   567  0099                     	;# 
   568  009A                     	;# 
   569  009B                     	;# 
   570  009B                     	;# 
   571  009C                     	;# 
   572  009D                     	;# 
   573  009E                     	;# 
   574  010C                     	;# 
   575  010D                     	;# 
   576  010E                     	;# 
   577  010F                     	;# 
   578  0110                     	;# 
   579  0111                     	;# 
   580  0112                     	;# 
   581  0113                     	;# 
   582  0114                     	;# 
   583  0115                     	;# 
   584  0116                     	;# 
   585  0117                     	;# 
   586  0118                     	;# 
   587  0119                     	;# 
   588  011A                     	;# 
   589  011B                     	;# 
   590  011D                     	;# 
   591  011E                     	;# 
   592  011F                     	;# 
   593  018C                     	;# 
   594  0190                     	;# 
   595  0191                     	;# 
   596  0191                     	;# 
   597  0192                     	;# 
   598  0193                     	;# 
   599  0193                     	;# 
   600  0193                     	;# 
   601  0194                     	;# 
   602  0195                     	;# 
   603  0196                     	;# 
   604  0199                     	;# 
   605  0199                     	;# 
   606  019A                     	;# 
   607  019A                     	;# 
   608  019B                     	;# 
   609  019B                     	;# 
   610  019B                     	;# 
   611  019B                     	;# 
   612  019C                     	;# 
   613  019C                     	;# 
   614  019D                     	;# 
   615  019D                     	;# 
   616  019E                     	;# 
   617  019E                     	;# 
   618  019F                     	;# 
   619  020D                     	;# 
   620  0211                     	;# 
   621  0211                     	;# 
   622  0212                     	;# 
   623  0212                     	;# 
   624  0213                     	;# 
   625  0213                     	;# 
   626  0214                     	;# 
   627  0214                     	;# 
   628  0215                     	;# 
   629  0215                     	;# 
   630  0215                     	;# 
   631  0216                     	;# 
   632  0216                     	;# 
   633  0217                     	;# 
   634  0217                     	;# 
   635  0219                     	;# 
   636  021A                     	;# 
   637  021B                     	;# 
   638  021C                     	;# 
   639  021D                     	;# 
   640  021E                     	;# 
   641  021F                     	;# 
   642  028C                     	;# 
   643  028D                     	;# 
   644  0291                     	;# 
   645  0291                     	;# 
   646  0292                     	;# 
   647  0293                     	;# 
   648  0294                     	;# 
   649  0295                     	;# 
   650  0295                     	;# 
   651  0296                     	;# 
   652  0298                     	;# 
   653  0298                     	;# 
   654  0299                     	;# 
   655  029A                     	;# 
   656  029B                     	;# 
   657  029C                     	;# 
   658  029C                     	;# 
   659  029D                     	;# 
   660  029E                     	;# 
   661  029F                     	;# 
   662  030C                     	;# 
   663  030D                     	;# 
   664  0311                     	;# 
   665  0311                     	;# 
   666  0312                     	;# 
   667  0313                     	;# 
   668  0314                     	;# 
   669  0315                     	;# 
   670  0315                     	;# 
   671  0316                     	;# 
   672  0318                     	;# 
   673  0318                     	;# 
   674  0319                     	;# 
   675  031A                     	;# 
   676  031C                     	;# 
   677  031C                     	;# 
   678  031D                     	;# 
   679  031E                     	;# 
   680  038C                     	;# 
   681  038D                     	;# 
   682  0394                     	;# 
   683  0395                     	;# 
   684  0396                     	;# 
   685  040C                     	;# 
   686  040D                     	;# 
   687  0415                     	;# 
   688  0416                     	;# 
   689  0417                     	;# 
   690  041C                     	;# 
   691  041D                     	;# 
   692  041E                     	;# 
   693  048D                     	;# 
   694  0491                     	;# 
   695  0492                     	;# 
   696  0493                     	;# 
   697  0493                     	;# 
   698  0494                     	;# 
   699  0495                     	;# 
   700  0496                     	;# 
   701  0497                     	;# 
   702  0791                     	;# 
   703  0792                     	;# 
   704  0793                     	;# 
   705  0794                     	;# 
   706  0795                     	;# 
   707  0798                     	;# 
   708  0799                     	;# 
   709  079A                     	;# 
   710  079B                     	;# 
   711  079C                     	;# 
   712  079D                     	;# 
   713  07A0                     	;# 
   714  07A1                     	;# 
   715  07A2                     	;# 
   716  07A3                     	;# 
   717  07A4                     	;# 
   718  07A5                     	;# 
   719  07A6                     	;# 
   720  07A7                     	;# 
   721  07A8                     	;# 
   722  07A9                     	;# 
   723  07AA                     	;# 
   724  07AB                     	;# 
   725  07AC                     	;# 
   726  07AD                     	;# 
   727  07AE                     	;# 
   728  07AF                     	;# 
   729  07B0                     	;# 
   730  07B1                     	;# 
   731  07B2                     	;# 
   732  07B3                     	;# 
   733  07B4                     	;# 
   734  07B5                     	;# 
   735  07B6                     	;# 
   736  07B7                     	;# 
   737  0FE4                     	;# 
   738  0FE5                     	;# 
   739  0FE6                     	;# 
   740  0FE7                     	;# 
   741  0FE8                     	;# 
   742  0FE9                     	;# 
   743  0FEA                     	;# 
   744  0FEB                     	;# 
   745  0FED                     	;# 
   746  0FEE                     	;# 
   747  0FEF                     	;# 
   748  0000                     	;# 
   749  0001                     	;# 
   750  0002                     	;# 
   751  0003                     	;# 
   752  0004                     	;# 
   753  0005                     	;# 
   754  0006                     	;# 
   755  0007                     	;# 
   756  0008                     	;# 
   757  0009                     	;# 
   758  000A                     	;# 
   759  000B                     	;# 
   760  000C                     	;# 
   761  000D                     	;# 
   762  000E                     	;# 
   763  000F                     	;# 
   764  0010                     	;# 
   765  0011                     	;# 
   766  0012                     	;# 
   767  0013                     	;# 
   768  0014                     	;# 
   769  0015                     	;# 
   770  0016                     	;# 
   771  0016                     	;# 
   772  0017                     	;# 
   773  0018                     	;# 
   774  0019                     	;# 
   775  001A                     	;# 
   776  001B                     	;# 
   777  001C                     	;# 
   778  001E                     	;# 
   779  001F                     	;# 
   780  008C                     	;# 
   781  008D                     	;# 
   782  008E                     	;# 
   783  008F                     	;# 
   784  0090                     	;# 
   785  0091                     	;# 
   786  0092                     	;# 
   787  0093                     	;# 
   788  0094                     	;# 
   789  0095                     	;# 
   790  0096                     	;# 
   791  0097                     	;# 
   792  0098                     	;# 
   793  0099                     	;# 
   794  009A                     	;# 
   795  009B                     	;# 
   796  009B                     	;# 
   797  009C                     	;# 
   798  009D                     	;# 
   799  009E                     	;# 
   800  010C                     	;# 
   801  010D                     	;# 
   802  010E                     	;# 
   803  010F                     	;# 
   804  0110                     	;# 
   805  0111                     	;# 
   806  0112                     	;# 
   807  0113                     	;# 
   808  0114                     	;# 
   809  0115                     	;# 
   810  0116                     	;# 
   811  0117                     	;# 
   812  0118                     	;# 
   813  0119                     	;# 
   814  011A                     	;# 
   815  011B                     	;# 
   816  011D                     	;# 
   817  011E                     	;# 
   818  011F                     	;# 
   819  018C                     	;# 
   820  0190                     	;# 
   821  0191                     	;# 
   822  0191                     	;# 
   823  0192                     	;# 
   824  0193                     	;# 
   825  0193                     	;# 
   826  0193                     	;# 
   827  0194                     	;# 
   828  0195                     	;# 
   829  0196                     	;# 
   830  0199                     	;# 
   831  0199                     	;# 
   832  019A                     	;# 
   833  019A                     	;# 
   834  019B                     	;# 
   835  019B                     	;# 
   836  019B                     	;# 
   837  019B                     	;# 
   838  019C                     	;# 
   839  019C                     	;# 
   840  019D                     	;# 
   841  019D                     	;# 
   842  019E                     	;# 
   843  019E                     	;# 
   844  019F                     	;# 
   845  020D                     	;# 
   846  0211                     	;# 
   847  0211                     	;# 
   848  0212                     	;# 
   849  0212                     	;# 
   850  0213                     	;# 
   851  0213                     	;# 
   852  0214                     	;# 
   853  0214                     	;# 
   854  0215                     	;# 
   855  0215                     	;# 
   856  0215                     	;# 
   857  0216                     	;# 
   858  0216                     	;# 
   859  0217                     	;# 
   860  0217                     	;# 
   861  0219                     	;# 
   862  021A                     	;# 
   863  021B                     	;# 
   864  021C                     	;# 
   865  021D                     	;# 
   866  021E                     	;# 
   867  021F                     	;# 
   868  028C                     	;# 
   869  028D                     	;# 
   870  0291                     	;# 
   871  0291                     	;# 
   872  0292                     	;# 
   873  0293                     	;# 
   874  0294                     	;# 
   875  0295                     	;# 
   876  0295                     	;# 
   877  0296                     	;# 
   878  0298                     	;# 
   879  0298                     	;# 
   880  0299                     	;# 
   881  029A                     	;# 
   882  029B                     	;# 
   883  029C                     	;# 
   884  029C                     	;# 
   885  029D                     	;# 
   886  029E                     	;# 
   887  029F                     	;# 
   888  030C                     	;# 
   889  030D                     	;# 
   890  0311                     	;# 
   891  0311                     	;# 
   892  0312                     	;# 
   893  0313                     	;# 
   894  0314                     	;# 
   895  0315                     	;# 
   896  0315                     	;# 
   897  0316                     	;# 
   898  0318                     	;# 
   899  0318                     	;# 
   900  0319                     	;# 
   901  031A                     	;# 
   902  031C                     	;# 
   903  031C                     	;# 
   904  031D                     	;# 
   905  031E                     	;# 
   906  038C                     	;# 
   907  038D                     	;# 
   908  0394                     	;# 
   909  0395                     	;# 
   910  0396                     	;# 
   911  040C                     	;# 
   912  040D                     	;# 
   913  0415                     	;# 
   914  0416                     	;# 
   915  0417                     	;# 
   916  041C                     	;# 
   917  041D                     	;# 
   918  041E                     	;# 
   919  048D                     	;# 
   920  0491                     	;# 
   921  0492                     	;# 
   922  0493                     	;# 
   923  0493                     	;# 
   924  0494                     	;# 
   925  0495                     	;# 
   926  0496                     	;# 
   927  0497                     	;# 
   928  0791                     	;# 
   929  0792                     	;# 
   930  0793                     	;# 
   931  0794                     	;# 
   932  0795                     	;# 
   933  0798                     	;# 
   934  0799                     	;# 
   935  079A                     	;# 
   936  079B                     	;# 
   937  079C                     	;# 
   938  079D                     	;# 
   939  07A0                     	;# 
   940  07A1                     	;# 
   941  07A2                     	;# 
   942  07A3                     	;# 
   943  07A4                     	;# 
   944  07A5                     	;# 
   945  07A6                     	;# 
   946  07A7                     	;# 
   947  07A8                     	;# 
   948  07A9                     	;# 
   949  07AA                     	;# 
   950  07AB                     	;# 
   951  07AC                     	;# 
   952  07AD                     	;# 
   953  07AE                     	;# 
   954  07AF                     	;# 
   955  07B0                     	;# 
   956  07B1                     	;# 
   957  07B2                     	;# 
   958  07B3                     	;# 
   959  07B4                     	;# 
   960  07B5                     	;# 
   961  07B6                     	;# 
   962  07B7                     	;# 
   963  0FE4                     	;# 
   964  0FE5                     	;# 
   965  0FE6                     	;# 
   966  0FE7                     	;# 
   967  0FE8                     	;# 
   968  0FE9                     	;# 
   969  0FEA                     	;# 
   970  0FEB                     	;# 
   971  0FED                     	;# 
   972  0FEE                     	;# 
   973  0FEF                     	;# 
   974  0000                     	;# 
   975  0001                     	;# 
   976  0002                     	;# 
   977  0003                     	;# 
   978  0004                     	;# 
   979  0005                     	;# 
   980  0006                     	;# 
   981  0007                     	;# 
   982  0008                     	;# 
   983  0009                     	;# 
   984  000A                     	;# 
   985  000B                     	;# 
   986  000C                     	;# 
   987  000D                     	;# 
   988  000E                     	;# 
   989  000F                     	;# 
   990  0010                     	;# 
   991  0011                     	;# 
   992  0012                     	;# 
   993  0013                     	;# 
   994  0014                     	;# 
   995  0015                     	;# 
   996  0016                     	;# 
   997  0016                     	;# 
   998  0017                     	;# 
   999  0018                     	;# 
  1000  0019                     	;# 
  1001  001A                     	;# 
  1002  001B                     	;# 
  1003  001C                     	;# 
  1004  001E                     	;# 
  1005  001F                     	;# 
  1006  008C                     	;# 
  1007  008D                     	;# 
  1008  008E                     	;# 
  1009  008F                     	;# 
  1010  0090                     	;# 
  1011  0091                     	;# 
  1012  0092                     	;# 
  1013  0093                     	;# 
  1014  0094                     	;# 
  1015  0095                     	;# 
  1016  0096                     	;# 
  1017  0097                     	;# 
  1018  0098                     	;# 
  1019  0099                     	;# 
  1020  009A                     	;# 
  1021  009B                     	;# 
  1022  009B                     	;# 
  1023  009C                     	;# 
  1024  009D                     	;# 
  1025  009E                     	;# 
  1026  010C                     	;# 
  1027  010D                     	;# 
  1028  010E                     	;# 
  1029  010F                     	;# 
  1030  0110                     	;# 
  1031  0111                     	;# 
  1032  0112                     	;# 
  1033  0113                     	;# 
  1034  0114                     	;# 
  1035  0115                     	;# 
  1036  0116                     	;# 
  1037  0117                     	;# 
  1038  0118                     	;# 
  1039  0119                     	;# 
  1040  011A                     	;# 
  1041  011B                     	;# 
  1042  011D                     	;# 
  1043  011E                     	;# 
  1044  011F                     	;# 
  1045  018C                     	;# 
  1046  0190                     	;# 
  1047  0191                     	;# 
  1048  0191                     	;# 
  1049  0192                     	;# 
  1050  0193                     	;# 
  1051  0193                     	;# 
  1052  0193                     	;# 
  1053  0194                     	;# 
  1054  0195                     	;# 
  1055  0196                     	;# 
  1056  0199                     	;# 
  1057  0199                     	;# 
  1058  019A                     	;# 
  1059  019A                     	;# 
  1060  019B                     	;# 
  1061  019B                     	;# 
  1062  019B                     	;# 
  1063  019B                     	;# 
  1064  019C                     	;# 
  1065  019C                     	;# 
  1066  019D                     	;# 
  1067  019D                     	;# 
  1068  019E                     	;# 
  1069  019E                     	;# 
  1070  019F                     	;# 
  1071  020D                     	;# 
  1072  0211                     	;# 
  1073  0211                     	;# 
  1074  0212                     	;# 
  1075  0212                     	;# 
  1076  0213                     	;# 
  1077  0213                     	;# 
  1078  0214                     	;# 
  1079  0214                     	;# 
  1080  0215                     	;# 
  1081  0215                     	;# 
  1082  0215                     	;# 
  1083  0216                     	;# 
  1084  0216                     	;# 
  1085  0217                     	;# 
  1086  0217                     	;# 
  1087  0219                     	;# 
  1088  021A                     	;# 
  1089  021B                     	;# 
  1090  021C                     	;# 
  1091  021D                     	;# 
  1092  021E                     	;# 
  1093  021F                     	;# 
  1094  028C                     	;# 
  1095  028D                     	;# 
  1096  0291                     	;# 
  1097  0291                     	;# 
  1098  0292                     	;# 
  1099  0293                     	;# 
  1100  0294                     	;# 
  1101  0295                     	;# 
  1102  0295                     	;# 
  1103  0296                     	;# 
  1104  0298                     	;# 
  1105  0298                     	;# 
  1106  0299                     	;# 
  1107  029A                     	;# 
  1108  029B                     	;# 
  1109  029C                     	;# 
  1110  029C                     	;# 
  1111  029D                     	;# 
  1112  029E                     	;# 
  1113  029F                     	;# 
  1114  030C                     	;# 
  1115  030D                     	;# 
  1116  0311                     	;# 
  1117  0311                     	;# 
  1118  0312                     	;# 
  1119  0313                     	;# 
  1120  0314                     	;# 
  1121  0315                     	;# 
  1122  0315                     	;# 
  1123  0316                     	;# 
  1124  0318                     	;# 
  1125  0318                     	;# 
  1126  0319                     	;# 
  1127  031A                     	;# 
  1128  031C                     	;# 
  1129  031C                     	;# 
  1130  031D                     	;# 
  1131  031E                     	;# 
  1132  038C                     	;# 
  1133  038D                     	;# 
  1134  0394                     	;# 
  1135  0395                     	;# 
  1136  0396                     	;# 
  1137  040C                     	;# 
  1138  040D                     	;# 
  1139  0415                     	;# 
  1140  0416                     	;# 
  1141  0417                     	;# 
  1142  041C                     	;# 
  1143  041D                     	;# 
  1144  041E                     	;# 
  1145  048D                     	;# 
  1146  0491                     	;# 
  1147  0492                     	;# 
  1148  0493                     	;# 
  1149  0493                     	;# 
  1150  0494                     	;# 
  1151  0495                     	;# 
  1152  0496                     	;# 
  1153  0497                     	;# 
  1154  0791                     	;# 
  1155  0792                     	;# 
  1156  0793                     	;# 
  1157  0794                     	;# 
  1158  0795                     	;# 
  1159  0798                     	;# 
  1160  0799                     	;# 
  1161  079A                     	;# 
  1162  079B                     	;# 
  1163  079C                     	;# 
  1164  079D                     	;# 
  1165  07A0                     	;# 
  1166  07A1                     	;# 
  1167  07A2                     	;# 
  1168  07A3                     	;# 
  1169  07A4                     	;# 
  1170  07A5                     	;# 
  1171  07A6                     	;# 
  1172  07A7                     	;# 
  1173  07A8                     	;# 
  1174  07A9                     	;# 
  1175  07AA                     	;# 
  1176  07AB                     	;# 
  1177  07AC                     	;# 
  1178  07AD                     	;# 
  1179  07AE                     	;# 
  1180  07AF                     	;# 
  1181  07B0                     	;# 
  1182  07B1                     	;# 
  1183  07B2                     	;# 
  1184  07B3                     	;# 
  1185  07B4                     	;# 
  1186  07B5                     	;# 
  1187  07B6                     	;# 
  1188  07B7                     	;# 
  1189  0FE4                     	;# 
  1190  0FE5                     	;# 
  1191  0FE6                     	;# 
  1192  0FE7                     	;# 
  1193  0FE8                     	;# 
  1194  0FE9                     	;# 
  1195  0FEA                     	;# 
  1196  0FEB                     	;# 
  1197  0FED                     	;# 
  1198  0FEE                     	;# 
  1199  0FEF                     	;# 
  1200  0000                     	;# 
  1201  0001                     	;# 
  1202  0002                     	;# 
  1203  0003                     	;# 
  1204  0004                     	;# 
  1205  0005                     	;# 
  1206  0006                     	;# 
  1207  0007                     	;# 
  1208  0008                     	;# 
  1209  0009                     	;# 
  1210  000A                     	;# 
  1211  000B                     	;# 
  1212  000C                     	;# 
  1213  000D                     	;# 
  1214  000E                     	;# 
  1215  000F                     	;# 
  1216  0010                     	;# 
  1217  0011                     	;# 
  1218  0012                     	;# 
  1219  0013                     	;# 
  1220  0014                     	;# 
  1221  0015                     	;# 
  1222  0016                     	;# 
  1223  0016                     	;# 
  1224  0017                     	;# 
  1225  0018                     	;# 
  1226  0019                     	;# 
  1227  001A                     	;# 
  1228  001B                     	;# 
  1229  001C                     	;# 
  1230  001E                     	;# 
  1231  001F                     	;# 
  1232  008C                     	;# 
  1233  008D                     	;# 
  1234  008E                     	;# 
  1235  008F                     	;# 
  1236  0090                     	;# 
  1237  0091                     	;# 
  1238  0092                     	;# 
  1239  0093                     	;# 
  1240  0094                     	;# 
  1241  0095                     	;# 
  1242  0096                     	;# 
  1243  0097                     	;# 
  1244  0098                     	;# 
  1245  0099                     	;# 
  1246  009A                     	;# 
  1247  009B                     	;# 
  1248  009B                     	;# 
  1249  009C                     	;# 
  1250  009D                     	;# 
  1251  009E                     	;# 
  1252  010C                     	;# 
  1253  010D                     	;# 
  1254  010E                     	;# 
  1255  010F                     	;# 
  1256  0110                     	;# 
  1257  0111                     	;# 
  1258  0112                     	;# 
  1259  0113                     	;# 
  1260  0114                     	;# 
  1261  0115                     	;# 
  1262  0116                     	;# 
  1263  0117                     	;# 
  1264  0118                     	;# 
  1265  0119                     	;# 
  1266  011A                     	;# 
  1267  011B                     	;# 
  1268  011D                     	;# 
  1269  011E                     	;# 
  1270  011F                     	;# 
  1271  018C                     	;# 
  1272  0190                     	;# 
  1273  0191                     	;# 
  1274  0191                     	;# 
  1275  0192                     	;# 
  1276  0193                     	;# 
  1277  0193                     	;# 
  1278  0193                     	;# 
  1279  0194                     	;# 
  1280  0195                     	;# 
  1281  0196                     	;# 
  1282  0199                     	;# 
  1283  0199                     	;# 
  1284  019A                     	;# 
  1285  019A                     	;# 
  1286  019B                     	;# 
  1287  019B                     	;# 
  1288  019B                     	;# 
  1289  019B                     	;# 
  1290  019C                     	;# 
  1291  019C                     	;# 
  1292  019D                     	;# 
  1293  019D                     	;# 
  1294  019E                     	;# 
  1295  019E                     	;# 
  1296  019F                     	;# 
  1297  020D                     	;# 
  1298  0211                     	;# 
  1299  0211                     	;# 
  1300  0212                     	;# 
  1301  0212                     	;# 
  1302  0213                     	;# 
  1303  0213                     	;# 
  1304  0214                     	;# 
  1305  0214                     	;# 
  1306  0215                     	;# 
  1307  0215                     	;# 
  1308  0215                     	;# 
  1309  0216                     	;# 
  1310  0216                     	;# 
  1311  0217                     	;# 
  1312  0217                     	;# 
  1313  0219                     	;# 
  1314  021A                     	;# 
  1315  021B                     	;# 
  1316  021C                     	;# 
  1317  021D                     	;# 
  1318  021E                     	;# 
  1319  021F                     	;# 
  1320  028C                     	;# 
  1321  028D                     	;# 
  1322  0291                     	;# 
  1323  0291                     	;# 
  1324  0292                     	;# 
  1325  0293                     	;# 
  1326  0294                     	;# 
  1327  0295                     	;# 
  1328  0295                     	;# 
  1329  0296                     	;# 
  1330  0298                     	;# 
  1331  0298                     	;# 
  1332  0299                     	;# 
  1333  029A                     	;# 
  1334  029B                     	;# 
  1335  029C                     	;# 
  1336  029C                     	;# 
  1337  029D                     	;# 
  1338  029E                     	;# 
  1339  029F                     	;# 
  1340  030C                     	;# 
  1341  030D                     	;# 
  1342  0311                     	;# 
  1343  0311                     	;# 
  1344  0312                     	;# 
  1345  0313                     	;# 
  1346  0314                     	;# 
  1347  0315                     	;# 
  1348  0315                     	;# 
  1349  0316                     	;# 
  1350  0318                     	;# 
  1351  0318                     	;# 
  1352  0319                     	;# 
  1353  031A                     	;# 
  1354  031C                     	;# 
  1355  031C                     	;# 
  1356  031D                     	;# 
  1357  031E                     	;# 
  1358  038C                     	;# 
  1359  038D                     	;# 
  1360  0394                     	;# 
  1361  0395                     	;# 
  1362  0396                     	;# 
  1363  040C                     	;# 
  1364  040D                     	;# 
  1365  0415                     	;# 
  1366  0416                     	;# 
  1367  0417                     	;# 
  1368  041C                     	;# 
  1369  041D                     	;# 
  1370  041E                     	;# 
  1371  048D                     	;# 
  1372  0491                     	;# 
  1373  0492                     	;# 
  1374  0493                     	;# 
  1375  0493                     	;# 
  1376  0494                     	;# 
  1377  0495                     	;# 
  1378  0496                     	;# 
  1379  0497                     	;# 
  1380  0791                     	;# 
  1381  0792                     	;# 
  1382  0793                     	;# 
  1383  0794                     	;# 
  1384  0795                     	;# 
  1385  0798                     	;# 
  1386  0799                     	;# 
  1387  079A                     	;# 
  1388  079B                     	;# 
  1389  079C                     	;# 
  1390  079D                     	;# 
  1391  07A0                     	;# 
  1392  07A1                     	;# 
  1393  07A2                     	;# 
  1394  07A3                     	;# 
  1395  07A4                     	;# 
  1396  07A5                     	;# 
  1397  07A6                     	;# 
  1398  07A7                     	;# 
  1399  07A8                     	;# 
  1400  07A9                     	;# 
  1401  07AA                     	;# 
  1402  07AB                     	;# 
  1403  07AC                     	;# 
  1404  07AD                     	;# 
  1405  07AE                     	;# 
  1406  07AF                     	;# 
  1407  07B0                     	;# 
  1408  07B1                     	;# 
  1409  07B2                     	;# 
  1410  07B3                     	;# 
  1411  07B4                     	;# 
  1412  07B5                     	;# 
  1413  07B6                     	;# 
  1414  07B7                     	;# 
  1415  0FE4                     	;# 
  1416  0FE5                     	;# 
  1417  0FE6                     	;# 
  1418  0FE7                     	;# 
  1419  0FE8                     	;# 
  1420  0FE9                     	;# 
  1421  0FEA                     	;# 
  1422  0FEB                     	;# 
  1423  0FED                     	;# 
  1424  0FEE                     	;# 
  1425  0FEF                     	;# 
  1426  0000                     	;# 
  1427  0001                     	;# 
  1428  0002                     	;# 
  1429  0003                     	;# 
  1430  0004                     	;# 
  1431  0005                     	;# 
  1432  0006                     	;# 
  1433  0007                     	;# 
  1434  0008                     	;# 
  1435  0009                     	;# 
  1436  000A                     	;# 
  1437  000B                     	;# 
  1438  000C                     	;# 
  1439  000D                     	;# 
  1440  000E                     	;# 
  1441  000F                     	;# 
  1442  0010                     	;# 
  1443  0011                     	;# 
  1444  0012                     	;# 
  1445  0013                     	;# 
  1446  0014                     	;# 
  1447  0015                     	;# 
  1448  0016                     	;# 
  1449  0016                     	;# 
  1450  0017                     	;# 
  1451  0018                     	;# 
  1452  0019                     	;# 
  1453  001A                     	;# 
  1454  001B                     	;# 
  1455  001C                     	;# 
  1456  001E                     	;# 
  1457  001F                     	;# 
  1458  008C                     	;# 
  1459  008D                     	;# 
  1460  008E                     	;# 
  1461  008F                     	;# 
  1462  0090                     	;# 
  1463  0091                     	;# 
  1464  0092                     	;# 
  1465  0093                     	;# 
  1466  0094                     	;# 
  1467  0095                     	;# 
  1468  0096                     	;# 
  1469  0097                     	;# 
  1470  0098                     	;# 
  1471  0099                     	;# 
  1472  009A                     	;# 
  1473  009B                     	;# 
  1474  009B                     	;# 
  1475  009C                     	;# 
  1476  009D                     	;# 
  1477  009E                     	;# 
  1478  010C                     	;# 
  1479  010D                     	;# 
  1480  010E                     	;# 
  1481  010F                     	;# 
  1482  0110                     	;# 
  1483  0111                     	;# 
  1484  0112                     	;# 
  1485  0113                     	;# 
  1486  0114                     	;# 
  1487  0115                     	;# 
  1488  0116                     	;# 
  1489  0117                     	;# 
  1490  0118                     	;# 
  1491  0119                     	;# 
  1492  011A                     	;# 
  1493  011B                     	;# 
  1494  011D                     	;# 
  1495  011E                     	;# 
  1496  011F                     	;# 
  1497  018C                     	;# 
  1498  0190                     	;# 
  1499  0191                     	;# 
  1500  0191                     	;# 
  1501  0192                     	;# 
  1502  0193                     	;# 
  1503  0193                     	;# 
  1504  0193                     	;# 
  1505  0194                     	;# 
  1506  0195                     	;# 
  1507  0196                     	;# 
  1508  0199                     	;# 
  1509  0199                     	;# 
  1510  019A                     	;# 
  1511  019A                     	;# 
  1512  019B                     	;# 
  1513  019B                     	;# 
  1514  019B                     	;# 
  1515  019B                     	;# 
  1516  019C                     	;# 
  1517  019C                     	;# 
  1518  019D                     	;# 
  1519  019D                     	;# 
  1520  019E                     	;# 
  1521  019E                     	;# 
  1522  019F                     	;# 
  1523  020D                     	;# 
  1524  0211                     	;# 
  1525  0211                     	;# 
  1526  0212                     	;# 
  1527  0212                     	;# 
  1528  0213                     	;# 
  1529  0213                     	;# 
  1530  0214                     	;# 
  1531  0214                     	;# 
  1532  0215                     	;# 
  1533  0215                     	;# 
  1534  0215                     	;# 
  1535  0216                     	;# 
  1536  0216                     	;# 
  1537  0217                     	;# 
  1538  0217                     	;# 
  1539  0219                     	;# 
  1540  021A                     	;# 
  1541  021B                     	;# 
  1542  021C                     	;# 
  1543  021D                     	;# 
  1544  021E                     	;# 
  1545  021F                     	;# 
  1546  028C                     	;# 
  1547  028D                     	;# 
  1548  0291                     	;# 
  1549  0291                     	;# 
  1550  0292                     	;# 
  1551  0293                     	;# 
  1552  0294                     	;# 
  1553  0295                     	;# 
  1554  0295                     	;# 
  1555  0296                     	;# 
  1556  0298                     	;# 
  1557  0298                     	;# 
  1558  0299                     	;# 
  1559  029A                     	;# 
  1560  029B                     	;# 
  1561  029C                     	;# 
  1562  029C                     	;# 
  1563  029D                     	;# 
  1564  029E                     	;# 
  1565  029F                     	;# 
  1566  030C                     	;# 
  1567  030D                     	;# 
  1568  0311                     	;# 
  1569  0311                     	;# 
  1570  0312                     	;# 
  1571  0313                     	;# 
  1572  0314                     	;# 
  1573  0315                     	;# 
  1574  0315                     	;# 
  1575  0316                     	;# 
  1576  0318                     	;# 
  1577  0318                     	;# 
  1578  0319                     	;# 
  1579  031A                     	;# 
  1580  031C                     	;# 
  1581  031C                     	;# 
  1582  031D                     	;# 
  1583  031E                     	;# 
  1584  038C                     	;# 
  1585  038D                     	;# 
  1586  0394                     	;# 
  1587  0395                     	;# 
  1588  0396                     	;# 
  1589  040C                     	;# 
  1590  040D                     	;# 
  1591  0415                     	;# 
  1592  0416                     	;# 
  1593  0417                     	;# 
  1594  041C                     	;# 
  1595  041D                     	;# 
  1596  041E                     	;# 
  1597  048D                     	;# 
  1598  0491                     	;# 
  1599  0492                     	;# 
  1600  0493                     	;# 
  1601  0493                     	;# 
  1602  0494                     	;# 
  1603  0495                     	;# 
  1604  0496                     	;# 
  1605  0497                     	;# 
  1606  0791                     	;# 
  1607  0792                     	;# 
  1608  0793                     	;# 
  1609  0794                     	;# 
  1610  0795                     	;# 
  1611  0798                     	;# 
  1612  0799                     	;# 
  1613  079A                     	;# 
  1614  079B                     	;# 
  1615  079C                     	;# 
  1616  079D                     	;# 
  1617  07A0                     	;# 
  1618  07A1                     	;# 
  1619  07A2                     	;# 
  1620  07A3                     	;# 
  1621  07A4                     	;# 
  1622  07A5                     	;# 
  1623  07A6                     	;# 
  1624  07A7                     	;# 
  1625  07A8                     	;# 
  1626  07A9                     	;# 
  1627  07AA                     	;# 
  1628  07AB                     	;# 
  1629  07AC                     	;# 
  1630  07AD                     	;# 
  1631  07AE                     	;# 
  1632  07AF                     	;# 
  1633  07B0                     	;# 
  1634  07B1                     	;# 
  1635  07B2                     	;# 
  1636  07B3                     	;# 
  1637  07B4                     	;# 
  1638  07B5                     	;# 
  1639  07B6                     	;# 
  1640  07B7                     	;# 
  1641  0FE4                     	;# 
  1642  0FE5                     	;# 
  1643  0FE6                     	;# 
  1644  0FE7                     	;# 
  1645  0FE8                     	;# 
  1646  0FE9                     	;# 
  1647  0FEA                     	;# 
  1648  0FEB                     	;# 
  1649  0FED                     	;# 
  1650  0FEE                     	;# 
  1651  0FEF                     	;# 
  1652                           
  1653                           	psect	idataCOMMON
  1654  0588                     __pidataCOMMON:
  1655                           
  1656                           ;initializer for _tempH
  1657  0588  34E3               	retlw	227
  1658  0589  3403               	retlw	3
  1659                           
  1660                           	psect	idataBANK0
  1661  054E                     __pidataBANK0:
  1662                           
  1663                           ;initializer for _sendo2
  1664  054E  3411               	retlw	17
  1665  054F  3401               	retlw	1
  1666  0550  3401               	retlw	1
  1667  0551  34ED               	retlw	237
  1668                           
  1669                           ;initializer for _Operation_Type
  1670  0552  3401               	retlw	1
  1671  0553  3400               	retlw	0
  1672                           
  1673                           ;initializer for _caiji_val
  1674  0554  3403               	retlw	3
  1675  0555  3400               	retlw	0
  1676                           
  1677                           ;initializer for _WFLAG
  1678  0556  3401               	retlw	1
  1679                           
  1680                           ;initializer for _dat
  1681  0557  34AF               	retlw	175
  1682  0558  34AF               	retlw	175
  1683  0559  34AF               	retlw	175
  1684  055A  34AF               	retlw	175
  1685  055B  34AF               	retlw	175
  1686  055C  34AF               	retlw	175
  1687  055D  34AF               	retlw	175
  1688  055E  34AF               	retlw	175
  1689  055F  34E2               	retlw	226
  1690                           
  1691                           	psect	idataBANK1
  1692  0428                     __pidataBANK1:
  1693                           
  1694                           ;initializer for _D14
  1695  0428  34AF               	retlw	175
  1696  0429  34A0               	retlw	160
  1697  042A  346D               	retlw	109
  1698  042B  34E9               	retlw	233
  1699  042C  34E2               	retlw	226
  1700  042D  34CB               	retlw	203
  1701  042E  34C0               	retlw	192
  1702  042F  34A1               	retlw	161
  1703  0430  34EF               	retlw	239
  1704  0431  34EB               	retlw	235
  1705  0432  34E7               	retlw	231
  1706  0433  34CE               	retlw	206
  1707  0434  340F               	retlw	15
  1708  0435  34EC               	retlw	236
  1709  0436  348F               	retlw	143
  1710                           
  1711                           ;initializer for _D9
  1712  0437  34AF               	retlw	175
  1713  0438  34A0               	retlw	160
  1714  0439  346D               	retlw	109
  1715  043A  34E9               	retlw	233
  1716  043B  34E2               	retlw	226
  1717  043C  34CB               	retlw	203
  1718  043D  34C0               	retlw	192
  1719  043E  34A1               	retlw	161
  1720  043F  34EF               	retlw	239
  1721  0440  34EB               	retlw	235
  1722  0441  34E7               	retlw	231
  1723  0442  34CE               	retlw	206
  1724  0443  340F               	retlw	15
  1725  0444  34EC               	retlw	236
  1726  0445  348F               	retlw	143
  1727                           
  1728                           ;initializer for _SEG_CODE
  1729  0446  34AF               	retlw	175
  1730  0447  34A0               	retlw	160
  1731  0448  346D               	retlw	109
  1732  0449  34E9               	retlw	233
  1733  044A  34E2               	retlw	226
  1734  044B  34CB               	retlw	203
  1735  044C  34CF               	retlw	207
  1736  044D  34A1               	retlw	161
  1737  044E  34EF               	retlw	239
  1738  044F  34EB               	retlw	235
  1739                           
  1740                           ;initializer for _KEY_VAR
  1741  0450  3440               	retlw	64
  1742  0451  3440               	retlw	64
  1743  0452  3440               	retlw	64
  1744  0453  3440               	retlw	64
  1745  0454  34AF               	retlw	175
  1746  0455  34AF               	retlw	175
  1747  0456  34AF               	retlw	175
  1748  0457  34AF               	retlw	175
  1749  0458  34AF               	retlw	175
  1750  000B                     _INTCONbits	set	11
  1751  0003                     _STATUSbits	set	3
  1752  0014                     _PIR4	set	20
  1753  000D                     _PORTBbits	set	13
  1754  0018                     _T1CONbits	set	24
  1755  0016                     _TMR1L	set	22
  1756  0017                     _TMR1H	set	23
  1757  0018                     _T1CON	set	24
  1758  0015                     _TMR0	set	21
  1759  000D                     _PORTB	set	13
  1760  000C                     _PORTA	set	12
  1761  0011                     _PIR1	set	17
  1762  00A5                     _RC2IF	set	165
  1763  007C                     _RD4	set	124
  1764  008C                     _TXIF	set	140
  1765  005A                     _TMR0IF	set	90
  1766  005E                     _PEIE	set	94
  1767  0088                     _TMR1IF	set	136
  1768  005F                     _GIE	set	95
  1769  005D                     _T0IE	set	93
  1770  005A                     _T0IF	set	90
  1771  008E                     _ADIF	set	142
  1772  007D                     _RD5	set	125
  1773  007E                     _RD6	set	126
  1774  007F                     _RD7	set	127
  1775  0094                     _PIE4	set	148
  1776  0095                     _OPTION_REG	set	149
  1777  0091                     _PIE1	set	145
  1778  009B                     _ADRESL	set	155
  1779  009C                     _ADRESH	set	156
  1780  009E                     _ADCON1	set	158
  1781  009D                     _ADCON0	set	157
  1782  0095                     _OPTION_REGbits	set	149
  1783  008F                     _TRISD	set	143
  1784  008E                     _TRISC	set	142
  1785  008D                     _TRISB	set	141
  1786  008C                     _TRISA	set	140
  1787  0090                     _TRISE	set	144
  1788  0097                     _WDTCON	set	151
  1789  0098                     _OSCTUNE	set	152
  1790  0099                     _OSCCON	set	153
  1791  0488                     _TMR1IE	set	1160
  1792  04E9                     _GO	set	1257
  1793  011D                     _APFCON	set	285
  1794  010E                     _LATC	set	270
  1795  010D                     _LATB	set	269
  1796  010C                     _LATA	set	268
  1797  010F                     _LATD	set	271
  1798  0110                     _LATE	set	272
  1799  0116                     _BORCON	set	278
  1800  0191                     _EEADR	set	401
  1801  0196                     _EECON2	set	406
  1802  0193                     _EEDATA	set	403
  1803  0195                     _EECON1	set	405
  1804  0195                     _EECON1bits	set	405
  1805  0199                     _RCREG	set	409
  1806  019A                     _TXREG	set	410
  1807  019B                     _SPBRG	set	411
  1808  019D                     _RCSTA	set	413
  1809  019E                     _TXSTA	set	414
  1810  018C                     _ANSELA	set	396
  1811  0190                     _ANSELE	set	400
  1812  0CA9                     _WR	set	3241
  1813  020D                     _WPUB	set	525
  1814  028C                     _PORTFbits	set	652
  1815  028C                     _PORTF	set	652
  1816  030C                     _TRISF	set	780
  1817  1869                     _TRISG1	set	6249
  1818  186A                     _TRISG2	set	6250
  1819  0497                     _BAUD2CONbits	set	1175
  1820  0496                     _TX2STA	set	1174
  1821  0493                     _SP2BRGL	set	1171
  1822  0496                     _TX2STAbits	set	1174
  1823  0495                     _RC2STAbits	set	1173
  1824                           
  1825                           	psect	cinit
  1826  0127                     start_initialization:	
  1827                           ; #config settings
  1828                           
  1829  0127                     __initialization:
  1830                           
  1831                           ; Initialize objects allocated to COMMON
  1832  0127  3185  2588  3181   	fcall	__pidataCOMMON	;fetch initializer
  1833  012A  00FC               	movwf	__pdataCOMMON& (0+127)
  1834  012B  3185  2589  3181   	fcall	__pidataCOMMON+1	;fetch initializer
  1835  012E  00FD               	movwf	(__pdataCOMMON+1)& (0+127)
  1836                           
  1837                           ; Initialize objects allocated to BANK0
  1838  012F  304E               	movlw	low __pidataBANK0
  1839  0130  0084               	movwf	4
  1840  0131  3085               	movlw	(high __pidataBANK0)| (0+128)
  1841  0132  0085               	movwf	5
  1842  0133  3044               	movlw	low __pdataBANK0
  1843  0134  0086               	movwf	6
  1844  0135  3000               	movlw	high __pdataBANK0
  1845  0136  0087               	movwf	7
  1846  0137  3012               	movlw	18
  1847  0138  3185  257C  3181   	fcall	init_ram
  1848                           
  1849                           ; Initialize objects allocated to BANK1
  1850  013B  3028               	movlw	low __pidataBANK1
  1851  013C  0084               	movwf	4
  1852  013D  3084               	movlw	(high __pidataBANK1)| (0+128)
  1853  013E  0085               	movwf	5
  1854  013F  30A0               	movlw	low __pdataBANK1
  1855  0140  0086               	movwf	6
  1856  0141  3000               	movlw	high __pdataBANK1
  1857  0142  0087               	movwf	7
  1858  0143  3031               	movlw	49
  1859  0144  3185  257C  3181   	fcall	init_ram
  1860                           
  1861                           ; Clear objects allocated to COMMON
  1862  0147  01F9               	clrf	__pbssCOMMON& (0+127)
  1863  0148  01FA               	clrf	(__pbssCOMMON+1)& (0+127)
  1864  0149  01FB               	clrf	(__pbssCOMMON+2)& (0+127)
  1865                           
  1866                           ; Clear objects allocated to BANK0
  1867  014A  3020               	movlw	low __pbssBANK0
  1868  014B  0084               	movwf	4
  1869  014C  3000               	movlw	high __pbssBANK0
  1870  014D  0085               	movwf	5
  1871  014E  3024               	movlw	36
  1872  014F  3185  2582  3181   	fcall	clear_ram0
  1873                           
  1874                           ; Clear objects allocated to BANK1
  1875  0152  30D1               	movlw	low __pbssBANK1
  1876  0153  0084               	movwf	4
  1877  0154  3000               	movlw	high __pbssBANK1
  1878  0155  0085               	movwf	5
  1879  0156  300C               	movlw	12
  1880  0157  3185  2582  3181   	fcall	clear_ram0
  1881  015A                     end_of_initialization:	
  1882                           ;End of C runtime variable initialization code
  1883                           
  1884  015A                     __end_of__initialization:
  1885  015A  107E               	bcf	int$flags,0	;clear compiler interrupt flag (level 1)
  1886  015B  0020               	movlb	0
  1887  015C  3181  295E         	ljmp	_main	;jump to C main() function
  1888                           
  1889                           	psect	bssCOMMON
  1890  0079                     __pbssCOMMON:
  1891  0079                     _TimeFLAG:
  1892  0079                     	ds	1
  1893  007A                     _read_var:
  1894  007A                     	ds	1
  1895  007B                     _m:
  1896  007B                     	ds	1
  1897                           
  1898                           	psect	dataCOMMON
  1899  007C                     __pdataCOMMON:
  1900  007C                     _tempH:
  1901  007C                     	ds	2
  1902                           
  1903                           	psect	bssBANK0
  1904  0020                     __pbssBANK0:
  1905  0020                     _Key_arr:
  1906  0020                     	ds	3
  1907  0023                     _global_num2:
  1908  0023                     	ds	2
  1909  0025                     _global_num1:
  1910  0025                     	ds	2
  1911  0027                     _KeyValue:
  1912  0027                     	ds	2
  1913  0029                     _countM:
  1914  0029                     	ds	2
  1915  002B                     _Time_Count:
  1916  002B                     	ds	2
  1917  002D                     _tempHD:
  1918  002D                     	ds	2
  1919  002F                     _temph:
  1920  002F                     	ds	2
  1921  0031                     _tempM:
  1922  0031                     	ds	2
  1923  0033                     _tempM0:
  1924  0033                     	ds	2
  1925  0035                     _temp2:
  1926  0035                     	ds	2
  1927  0037                     _temp1:
  1928  0037                     	ds	2
  1929  0039                     _SciSendFlag:
  1930  0039                     	ds	1
  1931  003A                     _SciReceiveFlag:
  1932  003A                     	ds	1
  1933  003B                     _send_count:
  1934  003B                     	ds	1
  1935  003C                     _receive_count:
  1936  003C                     	ds	1
  1937  003D                     _Intrcnt:
  1938  003D                     	ds	1
  1939  003E                     _tempM60:
  1940  003E                     	ds	1
  1941  003F                     _p:
  1942  003F                     	ds	1
  1943  0040                     _i:
  1944  0040                     	ds	1
  1945  0041                     _e:
  1946  0041                     	ds	1
  1947  0042                     _d:
  1948  0042                     	ds	1
  1949  0043                     _ret_var:
  1950  0043                     	ds	1
  1951                           
  1952                           	psect	dataBANK0
  1953  0044                     __pdataBANK0:
  1954  0044                     _sendo2:
  1955  0044                     	ds	4
  1956  0048                     _Operation_Type:
  1957  0048                     	ds	2
  1958  004A                     _caiji_val:
  1959  004A                     	ds	2
  1960  004C                     _WFLAG:
  1961  004C                     	ds	1
  1962  004D                     _dat:
  1963  004D                     	ds	9
  1964                           
  1965                           	psect	bssBANK1
  1966  00D1                     __pbssBANK1:
  1967  00D1                     _receiveo2:
  1968  00D1                     	ds	12
  1969                           
  1970                           	psect	dataBANK1
  1971  00A0                     __pdataBANK1:
  1972  00A0                     _D14:
  1973  00A0                     	ds	15
  1974  00AF                     _D9:
  1975  00AF                     	ds	15
  1976  00BE                     _SEG_CODE:
  1977  00BE                     	ds	10
  1978  00C8                     _KEY_VAR:
  1979  00C8                     	ds	9
  1980                           
  1981                           	psect	inittext
  1982  057C                     init_ram:
  1983  057C  00FE               	movwf	btemp
  1984  057D                     initloop:
  1985  057D  0012               	moviw fsr0++
  1986  057E  001E               	movwi fsr1++
  1987  057F  0BFE               	decfsz	btemp,f
  1988  0580  2D7D               	goto	initloop
  1989  0581  3400               	retlw	0
  1990                           
  1991                           	psect	clrtext
  1992  0582                     clear_ram0:	
  1993                           ;	Called with FSR0 containing the base address, and
  1994                           ;	WREG with the size to clear
  1995                           
  1996  0582  0064               	clrwdt	;clear the watchdog before getting into this loop
  1997  0583                     clrloop0:
  1998  0583  0180               	clrf	0	;clear RAM location pointed to by FSR
  1999  0584  3101               	addfsr 0,1
  2000  0585  0B89               	decfsz	9,f	;Have we reached the end of clearing yet?
  2001  0586  2D83               	goto	clrloop0	;have we reached the end yet?
  2002  0587  3400               	retlw	0	;all done for this memory range, return
  2003                           
  2004                           	psect	cstackCOMMON
  2005  0070                     __pcstackCOMMON:
  2006  0070                     ?_eeprom_write:
  2007  0070                     ?_eeprom_read:	
  2008                           ; 1 bytes @ 0x0
  2009                           
  2010  0070                     ?_TM1721_Write_Byte:	
  2011                           ; 1 bytes @ 0x0
  2012                           
  2013  0070                     ?_TM1721_DisplayClear:	
  2014                           ; 1 bytes @ 0x0
  2015                           
  2016  0070                     ?_TM1721_Write_StringS:	
  2017                           ; 1 bytes @ 0x0
  2018                           
  2019  0070                     ?_Init:	
  2020                           ; 1 bytes @ 0x0
  2021                           
  2022  0070                     ?_timer0_Init:	
  2023                           ; 1 bytes @ 0x0
  2024                           
  2025  0070                     ?_timer1_Init:	
  2026                           ; 1 bytes @ 0x0
  2027                           
  2028  0070                     ?_ISR:	
  2029                           ; 1 bytes @ 0x0
  2030                           
  2031  0070                     ?_main:	
  2032                           ; 1 bytes @ 0x0
  2033                           
  2034  0070                     ?i1___lwdiv:	
  2035                           ; 1 bytes @ 0x0
  2036                           
  2037  0070                     eeprom_write@value:	
  2038                           ; 2 bytes @ 0x0
  2039                           
  2040  0070                     i1___lwdiv@divisor:	
  2041                           ; 1 bytes @ 0x0
  2042                           
  2043                           
  2044                           ; 2 bytes @ 0x0
  2045  0070                     	ds	1
  2046  0071                     ??_eeprom_write:
  2047                           
  2048                           ; 1 bytes @ 0x1
  2049  0071                     	ds	1
  2050  0072                     i1___lwdiv@dividend:
  2051                           
  2052                           ; 2 bytes @ 0x2
  2053  0072                     	ds	1
  2054  0073                     eeprom_write@addr:
  2055                           
  2056                           ; 1 bytes @ 0x3
  2057  0073                     	ds	1
  2058  0074                     ??i1___lwdiv:
  2059                           
  2060                           ; 1 bytes @ 0x4
  2061  0074                     	ds	1
  2062  0075                     i1___lwdiv@quotient:
  2063                           
  2064                           ; 2 bytes @ 0x5
  2065  0075                     	ds	2
  2066  0077                     i1___lwdiv@counter:
  2067                           
  2068                           ; 1 bytes @ 0x7
  2069  0077                     	ds	1
  2070  0078                     ??_ISR:
  2071                           
  2072                           ; 1 bytes @ 0x8
  2073  0078                     	ds	1
  2074                           
  2075                           	psect	cstackBANK0
  2076  0056                     __pcstackBANK0:
  2077  0056                     ?_DELAY:
  2078  0056                     ??_eeprom_read:	
  2079                           ; 1 bytes @ 0x0
  2080                           
  2081  0056                     ?_TM1721_Delay_ms:	
  2082                           ; 1 bytes @ 0x0
  2083                           
  2084  0056                     ??_Init:	
  2085                           ; 1 bytes @ 0x0
  2086                           
  2087  0056                     ??_timer0_Init:	
  2088                           ; 1 bytes @ 0x0
  2089                           
  2090  0056                     ??_timer1_Init:	
  2091                           ; 1 bytes @ 0x0
  2092                           
  2093  0056                     ?___lwdiv:	
  2094                           ; 1 bytes @ 0x0
  2095                           
  2096  0056                     TM1721_Delay_ms@n:	
  2097                           ; 2 bytes @ 0x0
  2098                           
  2099  0056                     DELAY@n:	
  2100                           ; 2 bytes @ 0x0
  2101                           
  2102  0056                     ___lwdiv@divisor:	
  2103                           ; 2 bytes @ 0x0
  2104                           
  2105                           
  2106                           ; 2 bytes @ 0x0
  2107  0056                     	ds	2
  2108  0058                     ??_DELAY:
  2109  0058                     ??_TM1721_Delay_ms:	
  2110                           ; 1 bytes @ 0x2
  2111                           
  2112  0058                     ___lwdiv@dividend:	
  2113                           ; 1 bytes @ 0x2
  2114                           
  2115                           
  2116                           ; 2 bytes @ 0x2
  2117  0058                     	ds	1
  2118  0059                     eeprom_read@addr:
  2119  0059                     TM1721_Delay_ms@j:	
  2120                           ; 1 bytes @ 0x3
  2121                           
  2122  0059                     DELAY@j:	
  2123                           ; 2 bytes @ 0x3
  2124                           
  2125                           
  2126                           ; 2 bytes @ 0x3
  2127  0059                     	ds	1
  2128  005A                     ??___lwdiv:
  2129                           
  2130                           ; 1 bytes @ 0x4
  2131  005A                     	ds	1
  2132  005B                     TM1721_Delay_ms@k:
  2133  005B                     DELAY@k:	
  2134                           ; 1 bytes @ 0x5
  2135                           
  2136  005B                     ___lwdiv@quotient:	
  2137                           ; 1 bytes @ 0x5
  2138                           
  2139                           
  2140                           ; 2 bytes @ 0x5
  2141  005B                     	ds	1
  2142  005C                     ??_TM1721_Write_Byte:
  2143                           
  2144                           ; 1 bytes @ 0x6
  2145  005C                     	ds	1
  2146  005D                     TM1721_Write_Byte@dat:
  2147  005D                     ___lwdiv@counter:	
  2148                           ; 1 bytes @ 0x7
  2149                           
  2150                           
  2151                           ; 1 bytes @ 0x7
  2152  005D                     	ds	1
  2153  005E                     ?___lwmod:
  2154  005E                     TM1721_Write_Byte@i:	
  2155                           ; 2 bytes @ 0x8
  2156                           
  2157  005E                     ___lwmod@divisor:	
  2158                           ; 1 bytes @ 0x8
  2159                           
  2160                           
  2161                           ; 2 bytes @ 0x8
  2162  005E                     	ds	1
  2163  005F                     ??_TM1721_DisplayClear:
  2164  005F                     ??_TM1721_Write_StringS:	
  2165                           ; 1 bytes @ 0x9
  2166                           
  2167  005F                     TM1721_Write_StringS@dat:	
  2168                           ; 1 bytes @ 0x9
  2169                           
  2170                           
  2171                           ; 1 bytes @ 0x9
  2172  005F                     	ds	1
  2173  0060                     TM1721_DisplayClear@p:
  2174  0060                     ___lwmod@dividend:	
  2175                           ; 1 bytes @ 0xA
  2176                           
  2177                           
  2178                           ; 2 bytes @ 0xA
  2179  0060                     	ds	1
  2180  0061                     TM1721_DisplayClear@h:
  2181                           
  2182                           ; 1 bytes @ 0xB
  2183  0061                     	ds	1
  2184  0062                     ??___lwmod:
  2185                           
  2186                           ; 1 bytes @ 0xC
  2187  0062                     	ds	1
  2188  0063                     ___lwmod@counter:
  2189                           
  2190                           ; 1 bytes @ 0xD
  2191  0063                     	ds	1
  2192  0064                     ??_main:
  2193                           
  2194                           ; 1 bytes @ 0xE
  2195  0064                     	ds	3
  2196  0067                     main@i:
  2197                           
  2198                           ; 1 bytes @ 0x11
  2199  0067                     	ds	1
  2200                           
  2201                           	psect	maintext
  2202  015E                     __pmaintext:	
  2203 ;;
  2204 ;;Main: autosize = 0, tempsize = 3, incstack = 0, save=0
  2205 ;;
  2206 ;; *************** function _main *****************
  2207 ;; Defined at:
  2208 ;;		line 289 in file "main.c"
  2209 ;; Parameters:    Size  Location     Type
  2210 ;;		None
  2211 ;; Auto vars:     Size  Location     Type
  2212 ;;  i               1   17[BANK0 ] unsigned char 
  2213 ;; Return value:  Size  Location     Type
  2214 ;;                  1    wreg      void 
  2215 ;; Registers used:
  2216 ;;		wreg, fsr1l, fsr1h, status,2, status,0, pclath, cstack
  2217 ;; Tracked objects:
  2218 ;;		On entry : B1F/0
  2219 ;;		On exit  : 0/0
  2220 ;;		Unchanged: 0/0
  2221 ;; Data sizes:     COMMON   BANK0   BANK1   BANK2   BANK3   BANK4   BANK5   BANK6
  2222 ;;      Params:         0       0       0       0       0       0       0       0
  2223 ;;      Locals:         0       1       0       0       0       0       0       0
  2224 ;;      Temps:          0       3       0       0       0       0       0       0
  2225 ;;      Totals:         0       4       0       0       0       0       0       0
  2226 ;;Total ram usage:        4 bytes
  2227 ;; Hardware stack levels required when called:    5
  2228 ;; This function calls:
  2229 ;;		_DELAY
  2230 ;;		_Init
  2231 ;;		_TM1721_DisplayClear
  2232 ;;		_TM1721_Write_Byte
  2233 ;;		_TM1721_Write_StringS
  2234 ;;		___lwdiv
  2235 ;;		___lwmod
  2236 ;;		_eeprom_read
  2237 ;;		_timer0_Init
  2238 ;;		_timer1_Init
  2239 ;; This function is called by:
  2240 ;;		Startup code after reset
  2241 ;; This function uses a non-reentrant model
  2242 ;;
  2243                           
  2244                           
  2245                           ;psect for function _main
  2246  015E                     _main:
  2247  015E                     l2289:	
  2248                           ;incstack = 0
  2249                           ; Regs used in _main: [wreg+fsr1l+fsr1h+status,2+status,0+pclath+cstack]
  2250                           
  2251                           
  2252                           ;main.c: 291:     Init();
  2253  015E  3185  2531  3181   	fcall	_Init
  2254  0161                     l2291:
  2255                           
  2256                           ;main.c: 294:     RD4=1;
  2257  0161  0020               	movlb	0	; select bank0
  2258  0162  160F               	bsf	15,4	;volatile
  2259  0163                     l2293:
  2260                           
  2261                           ;main.c: 296:     RD6=1;RD5=1;
  2262  0163  170F               	bsf	15,6	;volatile
  2263  0164                     l2295:
  2264  0164  168F               	bsf	15,5	;volatile
  2265  0165                     l2297:
  2266                           
  2267                           ;main.c: 297:     RD7=1;
  2268  0165  178F               	bsf	15,7	;volatile
  2269                           
  2270                           ;main.c: 298:     TM1721_Write_Byte(0x08);
  2271  0166  3008               	movlw	8
  2272  0167  3184  24B0  3181   	fcall	_TM1721_Write_Byte
  2273  016A                     l2299:
  2274                           
  2275                           ;main.c: 299:     RD7=1;
  2276  016A  0020               	movlb	0	; select bank0
  2277  016B  178F               	bsf	15,7	;volatile
  2278                           
  2279                           ;main.c: 300:     TM1721_Write_Byte(0x97);
  2280  016C  3097               	movlw	151
  2281  016D  3184  24B0  3181   	fcall	_TM1721_Write_Byte
  2282  0170                     l2301:
  2283                           
  2284                           ;main.c: 301:     RD7=1;
  2285  0170  0020               	movlb	0	; select bank0
  2286  0171  178F               	bsf	15,7	;volatile
  2287                           
  2288                           ;main.c: 302:     TM1721_DisplayClear(16);
  2289  0172  3010               	movlw	16
  2290  0173  3184  2459  3181   	fcall	_TM1721_DisplayClear
  2291                           
  2292                           ;main.c: 304:     tempHD = eeprom_read(0x11)*256;
  2293  0176  3011               	movlw	17
  2294  0177  3185  2514  3181   	fcall	_eeprom_read
  2295  017A  0020               	movlb	0	; select bank0
  2296  017B  00E4               	movwf	??_main
  2297  017C  01E5               	clrf	??_main+1
  2298  017D  0864               	movf	??_main,w
  2299  017E  00E5               	movwf	??_main+1
  2300  017F  01E4               	clrf	??_main
  2301  0180  0864               	movf	??_main,w
  2302  0181  00AD               	movwf	_tempHD
  2303  0182  0865               	movf	??_main+1,w
  2304  0183  00AE               	movwf	_tempHD+1
  2305                           
  2306                           ;main.c: 305:     tempHD += eeprom_read(0x10);
  2307  0184  3010               	movlw	16
  2308  0185  3185  2514  3181   	fcall	_eeprom_read
  2309  0188  0020               	movlb	0	; select bank0
  2310  0189  00E4               	movwf	??_main
  2311  018A  01E5               	clrf	??_main+1
  2312  018B  0864               	movf	??_main,w
  2313  018C  07AD               	addwf	_tempHD,f
  2314  018D  0865               	movf	??_main+1,w
  2315  018E  3DAE               	addwfc	_tempHD+1,f
  2316  018F                     l2303:
  2317                           
  2318                           ;main.c: 306:     if(tempHD!=0xFFFF)
  2319  018F  0A2D               	incf	_tempHD,w
  2320  0190  1D03               	skipz
  2321  0191  2997               	goto	u1330
  2322  0192  0A2E               	incf	_tempHD+1,w
  2323  0193  1903               	btfsc	3,2
  2324  0194  2996               	goto	u1331
  2325  0195  2997               	goto	u1330
  2326  0196                     u1331:
  2327  0196  2A30               	goto	l2317
  2328  0197                     u1330:
  2329  0197                     l2305:
  2330                           
  2331                           ;main.c: 307:     {;main.c: 308:     tempH=tempHD;
  2332  0197  082E               	movf	_tempHD+1,w
  2333  0198  00FD               	movwf	_tempH+1
  2334  0199  082D               	movf	_tempHD,w
  2335  019A  00FC               	movwf	_tempH
  2336  019B                     l2307:
  2337                           
  2338                           ;main.c: 309:     dat[4] = SEG_CODE[(tempHD /10000) % 10];
  2339  019B  300A               	movlw	10
  2340  019C  00DE               	movwf	___lwmod@divisor
  2341  019D  3000               	movlw	0
  2342  019E  00DF               	movwf	___lwmod@divisor+1
  2343  019F  3010               	movlw	16
  2344  01A0  00D6               	movwf	___lwdiv@divisor
  2345  01A1  3027               	movlw	39
  2346  01A2  00D7               	movwf	___lwdiv@divisor+1
  2347  01A3  082E               	movf	_tempHD+1,w
  2348  01A4  00D9               	movwf	___lwdiv@dividend+1
  2349  01A5  082D               	movf	_tempHD,w
  2350  01A6  00D8               	movwf	___lwdiv@dividend
  2351  01A7  3183  237A  3181   	fcall	___lwdiv
  2352  01AA  0020               	movlb	0	; select bank0
  2353  01AB  0857               	movf	?___lwdiv+1,w
  2354  01AC  00E1               	movwf	___lwmod@dividend+1
  2355  01AD  0856               	movf	?___lwdiv,w
  2356  01AE  00E0               	movwf	___lwmod@dividend
  2357  01AF  3183  23F3  3181   	fcall	___lwmod
  2358  01B2  0020               	movlb	0	; select bank0
  2359  01B3  085E               	movf	?___lwmod,w
  2360  01B4  3EBE               	addlw	(low (_SEG_CODE| 0))& (0+255)
  2361  01B5  0086               	movwf	6
  2362  01B6  0187               	clrf	7
  2363  01B7  0801               	movf	1,w
  2364  01B8  00E4               	movwf	??_main
  2365  01B9  0864               	movf	??_main,w
  2366  01BA  00D1               	movwf	_dat+4
  2367  01BB                     l2309:
  2368                           
  2369                           ;main.c: 310:     dat[5] = SEG_CODE[(tempHD /1000) % 10];
  2370  01BB  300A               	movlw	10
  2371  01BC  00DE               	movwf	___lwmod@divisor
  2372  01BD  3000               	movlw	0
  2373  01BE  00DF               	movwf	___lwmod@divisor+1
  2374  01BF  30E8               	movlw	232
  2375  01C0  00D6               	movwf	___lwdiv@divisor
  2376  01C1  3003               	movlw	3
  2377  01C2  00D7               	movwf	___lwdiv@divisor+1
  2378  01C3  082E               	movf	_tempHD+1,w
  2379  01C4  00D9               	movwf	___lwdiv@dividend+1
  2380  01C5  082D               	movf	_tempHD,w
  2381  01C6  00D8               	movwf	___lwdiv@dividend
  2382  01C7  3183  237A  3181   	fcall	___lwdiv
  2383  01CA  0020               	movlb	0	; select bank0
  2384  01CB  0857               	movf	?___lwdiv+1,w
  2385  01CC  00E1               	movwf	___lwmod@dividend+1
  2386  01CD  0856               	movf	?___lwdiv,w
  2387  01CE  00E0               	movwf	___lwmod@dividend
  2388  01CF  3183  23F3  3181   	fcall	___lwmod
  2389  01D2  0020               	movlb	0	; select bank0
  2390  01D3  085E               	movf	?___lwmod,w
  2391  01D4  3EBE               	addlw	(low (_SEG_CODE| 0))& (0+255)
  2392  01D5  0086               	movwf	6
  2393  01D6  0187               	clrf	7
  2394  01D7  0801               	movf	1,w
  2395  01D8  00E4               	movwf	??_main
  2396  01D9  0864               	movf	??_main,w
  2397  01DA  00D2               	movwf	_dat+5
  2398  01DB                     l2311:
  2399                           
  2400                           ;main.c: 311:     dat[6] = SEG_CODE[(tempHD /100) % 10];
  2401  01DB  300A               	movlw	10
  2402  01DC  00DE               	movwf	___lwmod@divisor
  2403  01DD  3000               	movlw	0
  2404  01DE  00DF               	movwf	___lwmod@divisor+1
  2405  01DF  3064               	movlw	100
  2406  01E0  00D6               	movwf	___lwdiv@divisor
  2407  01E1  3000               	movlw	0
  2408  01E2  00D7               	movwf	___lwdiv@divisor+1
  2409  01E3  082E               	movf	_tempHD+1,w
  2410  01E4  00D9               	movwf	___lwdiv@dividend+1
  2411  01E5  082D               	movf	_tempHD,w
  2412  01E6  00D8               	movwf	___lwdiv@dividend
  2413  01E7  3183  237A  3181   	fcall	___lwdiv
  2414  01EA  0020               	movlb	0	; select bank0
  2415  01EB  0857               	movf	?___lwdiv+1,w
  2416  01EC  00E1               	movwf	___lwmod@dividend+1
  2417  01ED  0856               	movf	?___lwdiv,w
  2418  01EE  00E0               	movwf	___lwmod@dividend
  2419  01EF  3183  23F3  3181   	fcall	___lwmod
  2420  01F2  0020               	movlb	0	; select bank0
  2421  01F3  085E               	movf	?___lwmod,w
  2422  01F4  3EBE               	addlw	(low (_SEG_CODE| 0))& (0+255)
  2423  01F5  0086               	movwf	6
  2424  01F6  0187               	clrf	7
  2425  01F7  0801               	movf	1,w
  2426  01F8  00E4               	movwf	??_main
  2427  01F9  0864               	movf	??_main,w
  2428  01FA  00D3               	movwf	_dat+6
  2429  01FB                     l2313:
  2430                           
  2431                           ;main.c: 312:     dat[7] = SEG_CODE[(tempHD /10) % 10];
  2432  01FB  300A               	movlw	10
  2433  01FC  00DE               	movwf	___lwmod@divisor
  2434  01FD  3000               	movlw	0
  2435  01FE  00DF               	movwf	___lwmod@divisor+1
  2436  01FF  300A               	movlw	10
  2437  0200  00D6               	movwf	___lwdiv@divisor
  2438  0201  3000               	movlw	0
  2439  0202  00D7               	movwf	___lwdiv@divisor+1
  2440  0203  082E               	movf	_tempHD+1,w
  2441  0204  00D9               	movwf	___lwdiv@dividend+1
  2442  0205  082D               	movf	_tempHD,w
  2443  0206  00D8               	movwf	___lwdiv@dividend
  2444  0207  3183  237A  3181   	fcall	___lwdiv
  2445  020A  0020               	movlb	0	; select bank0
  2446  020B  0857               	movf	?___lwdiv+1,w
  2447  020C  00E1               	movwf	___lwmod@dividend+1
  2448  020D  0856               	movf	?___lwdiv,w
  2449  020E  00E0               	movwf	___lwmod@dividend
  2450  020F  3183  23F3  3181   	fcall	___lwmod
  2451  0212  0020               	movlb	0	; select bank0
  2452  0213  085E               	movf	?___lwmod,w
  2453  0214  3EBE               	addlw	(low (_SEG_CODE| 0))& (0+255)
  2454  0215  0086               	movwf	6
  2455  0216  0187               	clrf	7
  2456  0217  0801               	movf	1,w
  2457  0218  00E4               	movwf	??_main
  2458  0219  0864               	movf	??_main,w
  2459  021A  00D4               	movwf	_dat+7
  2460  021B                     l2315:
  2461                           
  2462                           ;main.c: 313:  dat[8] = SEG_CODE[tempHD % 10];
  2463  021B  300A               	movlw	10
  2464  021C  00DE               	movwf	___lwmod@divisor
  2465  021D  3000               	movlw	0
  2466  021E  00DF               	movwf	___lwmod@divisor+1
  2467  021F  082E               	movf	_tempHD+1,w
  2468  0220  00E1               	movwf	___lwmod@dividend+1
  2469  0221  082D               	movf	_tempHD,w
  2470  0222  00E0               	movwf	___lwmod@dividend
  2471  0223  3183  23F3  3181   	fcall	___lwmod
  2472  0226  0020               	movlb	0	; select bank0
  2473  0227  085E               	movf	?___lwmod,w
  2474  0228  3EBE               	addlw	(low (_SEG_CODE| 0))& (0+255)
  2475  0229  0086               	movwf	6
  2476  022A  0187               	clrf	7
  2477  022B  0801               	movf	1,w
  2478  022C  00E4               	movwf	??_main
  2479  022D  0864               	movf	??_main,w
  2480  022E  00D5               	movwf	_dat+8
  2481                           
  2482                           ;main.c: 314:     }
  2483  022F  2A52               	goto	l2319
  2484  0230                     l2317:
  2485                           
  2486                           ;main.c: 316:     {;main.c: 317:     tempHD=tempH;
  2487  0230  087D               	movf	_tempH+1,w
  2488  0231  00AE               	movwf	_tempHD+1
  2489  0232  087C               	movf	_tempH,w
  2490  0233  00AD               	movwf	_tempHD
  2491                           
  2492                           ;main.c: 318:     dat[4] = SEG_CODE[0];
  2493  0234  0021               	movlb	1	; select bank1
  2494  0235  083E               	movf	_SEG_CODE^(0+128),w
  2495  0236  0020               	movlb	0	; select bank0
  2496  0237  00E4               	movwf	??_main
  2497  0238  0864               	movf	??_main,w
  2498  0239  00D1               	movwf	_dat+4
  2499                           
  2500                           ;main.c: 319:     dat[5] = SEG_CODE[0];
  2501  023A  0021               	movlb	1	; select bank1
  2502  023B  083E               	movf	_SEG_CODE^(0+128),w
  2503  023C  0020               	movlb	0	; select bank0
  2504  023D  00E4               	movwf	??_main
  2505  023E  0864               	movf	??_main,w
  2506  023F  00D2               	movwf	_dat+5
  2507                           
  2508                           ;main.c: 320:     dat[6] = SEG_CODE[0];
  2509  0240  0021               	movlb	1	; select bank1
  2510  0241  083E               	movf	_SEG_CODE^(0+128),w
  2511  0242  0020               	movlb	0	; select bank0
  2512  0243  00E4               	movwf	??_main
  2513  0244  0864               	movf	??_main,w
  2514  0245  00D3               	movwf	_dat+6
  2515                           
  2516                           ;main.c: 321:     dat[7] = SEG_CODE[0];
  2517  0246  0021               	movlb	1	; select bank1
  2518  0247  083E               	movf	_SEG_CODE^(0+128),w
  2519  0248  0020               	movlb	0	; select bank0
  2520  0249  00E4               	movwf	??_main
  2521  024A  0864               	movf	??_main,w
  2522  024B  00D4               	movwf	_dat+7
  2523                           
  2524                           ;main.c: 322:  dat[8] = SEG_CODE[0];
  2525  024C  0021               	movlb	1	; select bank1
  2526  024D  083E               	movf	_SEG_CODE^(0+128),w
  2527  024E  0020               	movlb	0	; select bank0
  2528  024F  00E4               	movwf	??_main
  2529  0250  0864               	movf	??_main,w
  2530  0251  00D5               	movwf	_dat+8
  2531  0252                     l2319:
  2532                           
  2533                           ;main.c: 325:     TM1721_Write_StringS(dat);
  2534  0252  304D               	movlw	(low (_dat| 0))& (0+255)
  2535  0253  3182  22E5  3181   	fcall	_TM1721_Write_StringS
  2536  0256                     l2321:
  2537                           
  2538                           ;main.c: 327:     PORTBbits.RB1=0;
  2539  0256  0020               	movlb	0	; select bank0
  2540  0257  108D               	bcf	13,1	;volatile
  2541  0258                     l2323:
  2542                           
  2543                           ;main.c: 328:     PORTBbits.RB2=0;
  2544  0258  110D               	bcf	13,2	;volatile
  2545  0259                     l2325:
  2546                           
  2547                           ;main.c: 329:     PORTFbits.RF3=1;
  2548  0259  0025               	movlb	5	; select bank5
  2549  025A  158C               	bsf	12,3	;volatile
  2550  025B                     l2327:
  2551                           
  2552                           ;main.c: 330:     PORTFbits.RF4=1;
  2553  025B  160C               	bsf	12,4	;volatile
  2554  025C                     l2329:
  2555                           
  2556                           ;main.c: 331:     PORTFbits.RF1=1;
  2557  025C  148C               	bsf	12,1	;volatile
  2558  025D                     l2331:
  2559                           
  2560                           ;main.c: 332:     DELAY(160);
  2561  025D  30A0               	movlw	160
  2562  025E  0020               	movlb	0	; select bank0
  2563  025F  00D6               	movwf	DELAY@n
  2564  0260  3000               	movlw	0
  2565  0261  00D7               	movwf	DELAY@n+1
  2566  0262  3184  24F4  3181   	fcall	_DELAY
  2567  0265                     l2333:
  2568                           
  2569                           ;main.c: 333:     PORTBbits.RB1=1;
  2570  0265  0020               	movlb	0	; select bank0
  2571  0266  148D               	bsf	13,1	;volatile
  2572  0267                     l2335:
  2573                           
  2574                           ;main.c: 334:     PORTBbits.RB2=1;
  2575  0267  150D               	bsf	13,2	;volatile
  2576  0268                     l2337:
  2577                           
  2578                           ;main.c: 335:     PORTFbits.RF3=0;
  2579  0268  0025               	movlb	5	; select bank5
  2580  0269  118C               	bcf	12,3	;volatile
  2581  026A                     l2339:
  2582                           
  2583                           ;main.c: 336:     PORTFbits.RF4=1;
  2584  026A  160C               	bsf	12,4	;volatile
  2585  026B                     l2341:
  2586                           
  2587                           ;main.c: 337:     DELAY(40);
  2588  026B  3028               	movlw	40
  2589  026C  0020               	movlb	0	; select bank0
  2590  026D  00D6               	movwf	DELAY@n
  2591  026E  3000               	movlw	0
  2592  026F  00D7               	movwf	DELAY@n+1
  2593  0270  3184  24F4  3181   	fcall	_DELAY
  2594  0273                     l2343:
  2595                           
  2596                           ;main.c: 338:     PORTFbits.RF3=0;
  2597  0273  0025               	movlb	5	; select bank5
  2598  0274  118C               	bcf	12,3	;volatile
  2599  0275                     l2345:
  2600                           
  2601                           ;main.c: 339:     PORTFbits.RF4=0;
  2602  0275  120C               	bcf	12,4	;volatile
  2603  0276                     l2347:
  2604                           
  2605                           ;main.c: 340:     DELAY(12);
  2606  0276  300C               	movlw	12
  2607  0277  0020               	movlb	0	; select bank0
  2608  0278  00D6               	movwf	DELAY@n
  2609  0279  3000               	movlw	0
  2610  027A  00D7               	movwf	DELAY@n+1
  2611  027B  3184  24F4  3181   	fcall	_DELAY
  2612  027E                     l2349:
  2613                           
  2614                           ;main.c: 341:     PORTFbits.RF3=0;
  2615  027E  0025               	movlb	5	; select bank5
  2616  027F  118C               	bcf	12,3	;volatile
  2617  0280                     l2351:
  2618                           
  2619                           ;main.c: 342:     PORTFbits.RF4=1;
  2620  0280  160C               	bsf	12,4	;volatile
  2621  0281                     l2353:
  2622                           
  2623                           ;main.c: 343:     DELAY(192);
  2624  0281  30C0               	movlw	192
  2625  0282  0020               	movlb	0	; select bank0
  2626  0283  00D6               	movwf	DELAY@n
  2627  0284  3000               	movlw	0
  2628  0285  00D7               	movwf	DELAY@n+1
  2629  0286  3184  24F4  3181   	fcall	_DELAY
  2630  0289                     l2355:
  2631                           
  2632                           ;main.c: 344:     PORTFbits.RF1=0;
  2633  0289  0025               	movlb	5	; select bank5
  2634  028A  108C               	bcf	12,1	;volatile
  2635  028B                     l2357:
  2636                           
  2637                           ;main.c: 345:     timer0_Init();
  2638  028B  3185  2572  3181   	fcall	_timer0_Init
  2639  028E                     l2359:
  2640                           
  2641                           ;main.c: 346:     timer1_Init();
  2642  028E  3185  2560  3181   	fcall	_timer1_Init
  2643  0291                     l2361:
  2644                           
  2645                           ;main.c: 348:     unsigned char i;;main.c: 349:     SP2BRGL=25;
  2646  0291  3019               	movlw	25
  2647  0292  0029               	movlb	9	; select bank9
  2648  0293  0093               	movwf	19	;volatile
  2649  0294                     l2363:
  2650                           
  2651                           ;main.c: 350:     TX2STA=0X24;
  2652  0294  3024               	movlw	36
  2653  0295  0096               	movwf	22	;volatile
  2654  0296                     l2365:
  2655                           
  2656                           ;main.c: 352:     BAUD2CONbits.BRG16=0;
  2657  0296  1197               	bcf	23,3	;volatile
  2658  0297                     l2367:
  2659                           
  2660                           ;main.c: 354:     TRISG2=1;
  2661  0297  0026               	movlb	6	; select bank6
  2662  0298  150D               	bsf	13,2	;volatile
  2663  0299                     l2369:
  2664                           
  2665                           ;main.c: 355:     TRISG1=1;
  2666  0299  148D               	bsf	13,1	;volatile
  2667  029A                     l2371:
  2668                           
  2669                           ;main.c: 357:     TX2STAbits.SYNC=0;
  2670  029A  0029               	movlb	9	; select bank9
  2671  029B  1216               	bcf	22,4	;volatile
  2672  029C                     l2373:
  2673                           
  2674                           ;main.c: 358:     RC2STAbits.SPEN=1;
  2675  029C  1795               	bsf	21,7	;volatile
  2676  029D                     l2375:
  2677                           
  2678                           ;main.c: 360:     TX2STAbits.TXEN=1;
  2679  029D  1696               	bsf	22,5	;volatile
  2680  029E                     l2377:
  2681                           
  2682                           ;main.c: 363:     PIR4=0;
  2683  029E  0020               	movlb	0	; select bank0
  2684  029F  0194               	clrf	20	;volatile
  2685  02A0                     l2379:
  2686                           
  2687                           ;main.c: 364:     PIE4=PIE4|0x30;
  2688  02A0  0021               	movlb	1	; select bank1
  2689  02A1  0814               	movf	20,w	;volatile
  2690  02A2  3830               	iorlw	48
  2691  02A3  0094               	movwf	20	;volatile
  2692  02A4                     l2381:
  2693                           
  2694                           ;main.c: 368:     TXREG=0x31;
  2695  02A4  3031               	movlw	49
  2696  02A5  0023               	movlb	3	; select bank3
  2697  02A6  009A               	movwf	26	;volatile
  2698  02A7                     l422:	
  2699                           ;main.c: 369:     while(!TX2STAbits.TRMT);
  2700                           
  2701  02A7  0029               	movlb	9	; select bank9
  2702  02A8  1C96               	btfss	22,1	;volatile
  2703  02A9  2AAB               	goto	u1341
  2704  02AA  2AAC               	goto	u1340
  2705  02AB                     u1341:
  2706  02AB  2AA7               	goto	l422
  2707  02AC                     u1340:
  2708  02AC                     l2383:
  2709                           
  2710                           ;main.c: 372:     {;main.c: 374:     for(i=0;i<3;i++)
  2711  02AC  0020               	movlb	0	; select bank0
  2712  02AD  01E7               	clrf	main@i
  2713  02AE                     l428:
  2714  02AE  0029               	movlb	9	; select bank9
  2715  02AF  1C96               	btfss	22,1	;volatile
  2716  02B0  2AB2               	goto	u1351
  2717  02B1  2AB3               	goto	u1350
  2718  02B2                     u1351:
  2719  02B2  2AAE               	goto	l428
  2720  02B3                     u1350:
  2721  02B3                     l2389:
  2722                           
  2723                           ;main.c: 378:         TXREG=sendo2[i];
  2724  02B3  0020               	movlb	0	; select bank0
  2725  02B4  0867               	movf	main@i,w
  2726  02B5  3E44               	addlw	(low (_sendo2| 0))& (0+255)
  2727  02B6  0086               	movwf	6
  2728  02B7  0187               	clrf	7
  2729  02B8  0801               	movf	1,w
  2730  02B9  0023               	movlb	3	; select bank3
  2731  02BA  009A               	movwf	26	;volatile
  2732  02BB                     l2391:
  2733                           
  2734                           ;main.c: 379:     }
  2735  02BB  3001               	movlw	1
  2736  02BC  0020               	movlb	0	; select bank0
  2737  02BD  00E4               	movwf	??_main
  2738  02BE  0864               	movf	??_main,w
  2739  02BF  07E7               	addwf	main@i,f
  2740  02C0                     l2393:
  2741  02C0  3003               	movlw	3
  2742  02C1  0267               	subwf	main@i,w
  2743  02C2  1C03               	skipc
  2744  02C3  2AC5               	goto	u1361
  2745  02C4  2AC6               	goto	u1360
  2746  02C5                     u1361:
  2747  02C5  2AAE               	goto	l428
  2748  02C6                     u1360:
  2749  02C6                     l427:
  2750                           
  2751                           ;main.c: 405:      if(RC2IF==1)
  2752  02C6  1E94               	btfss	20,5	;volatile
  2753  02C7  2AC9               	goto	u1371
  2754  02C8  2ACA               	goto	u1370
  2755  02C9                     u1371:
  2756  02C9  2AAC               	goto	l2383
  2757  02CA                     u1370:
  2758  02CA                     l2395:
  2759                           
  2760                           ;main.c: 406:         {;main.c: 407:          RC2IF=0;
  2761  02CA  1294               	bcf	20,5	;volatile
  2762  02CB                     l2397:
  2763                           
  2764                           ;main.c: 408:          receiveo2[receive_count]=RCREG;
  2765  02CB  0023               	movlb	3	; select bank3
  2766  02CC  0819               	movf	25,w	;volatile
  2767  02CD  0020               	movlb	0	; select bank0
  2768  02CE  00E4               	movwf	??_main
  2769  02CF  083C               	movf	_receive_count,w
  2770  02D0  3ED1               	addlw	(low (_receiveo2| 0))& (0+255)
  2771  02D1  0086               	movwf	6
  2772  02D2  0187               	clrf	7
  2773  02D3  0864               	movf	??_main,w
  2774  02D4  0081               	movwf	1
  2775  02D5                     l2399:
  2776                           
  2777                           ;main.c: 410:          receive_count++;
  2778  02D5  3001               	movlw	1
  2779  02D6  00E4               	movwf	??_main
  2780  02D7  0864               	movf	??_main,w
  2781  02D8  07BC               	addwf	_receive_count,f
  2782  02D9                     l2401:
  2783                           
  2784                           ;main.c: 411:          if(receive_count>11)
  2785  02D9  300C               	movlw	12
  2786  02DA  023C               	subwf	_receive_count,w
  2787  02DB  1C03               	skipc
  2788  02DC  2ADE               	goto	u1381
  2789  02DD  2ADF               	goto	u1380
  2790  02DE                     u1381:
  2791  02DE  2AAC               	goto	l2383
  2792  02DF                     u1380:
  2793  02DF                     l2403:
  2794                           
  2795                           ;main.c: 412:          {;main.c: 413:          receive_count=0;
  2796  02DF  01BC               	clrf	_receive_count
  2797  02E0                     l2405:
  2798                           
  2799                           ;main.c: 414:          SciReceiveFlag=1;
  2800  02E0  01BA               	clrf	_SciReceiveFlag
  2801  02E1  0ABA               	incf	_SciReceiveFlag,f
  2802  02E2  2AAC               	goto	l2383
  2803  02E3  3181  2925         	ljmp	start
  2804  02E5                     __end_of_main:
  2805                           
  2806                           	psect	text1
  2807  0560                     __ptext1:	
  2808 ;; *************** function _timer1_Init *****************
  2809 ;; Defined at:
  2810 ;;		line 141 in file "main.c"
  2811 ;; Parameters:    Size  Location     Type
  2812 ;;		None
  2813 ;; Auto vars:     Size  Location     Type
  2814 ;;		None
  2815 ;; Return value:  Size  Location     Type
  2816 ;;                  1    wreg      void 
  2817 ;; Registers used:
  2818 ;;		wreg
  2819 ;; Tracked objects:
  2820 ;;		On entry : 0/0
  2821 ;;		On exit  : 0/0
  2822 ;;		Unchanged: 0/0
  2823 ;; Data sizes:     COMMON   BANK0   BANK1   BANK2   BANK3   BANK4   BANK5   BANK6
  2824 ;;      Params:         0       0       0       0       0       0       0       0
  2825 ;;      Locals:         0       0       0       0       0       0       0       0
  2826 ;;      Temps:          0       0       0       0       0       0       0       0
  2827 ;;      Totals:         0       0       0       0       0       0       0       0
  2828 ;;Total ram usage:        0 bytes
  2829 ;; Hardware stack levels used:    1
  2830 ;; Hardware stack levels required when called:    2
  2831 ;; This function calls:
  2832 ;;		Nothing
  2833 ;; This function is called by:
  2834 ;;		_main
  2835 ;; This function uses a non-reentrant model
  2836 ;;
  2837                           
  2838                           
  2839                           ;psect for function _timer1_Init
  2840  0560                     _timer1_Init:
  2841  0560                     l1947:	
  2842                           ;incstack = 0
  2843                           ; Regs used in _timer1_Init: [wreg]
  2844                           
  2845                           
  2846                           ;main.c: 143:     T1CON=0X01;
  2847  0560  3001               	movlw	1
  2848  0561  0020               	movlb	0	; select bank0
  2849  0562  0098               	movwf	24	;volatile
  2850  0563                     l1949:
  2851                           
  2852                           ;main.c: 147:     TMR1IF=0;
  2853  0563  1011               	bcf	17,0	;volatile
  2854  0564                     l1951:
  2855                           
  2856                           ;main.c: 148:     TMR1IE=1;
  2857  0564  0021               	movlb	1	; select bank1
  2858  0565  1411               	bsf	17,0	;volatile
  2859                           
  2860                           ;main.c: 149:     TMR1H=0x0B;
  2861  0566  300B               	movlw	11
  2862  0567  0020               	movlb	0	; select bank0
  2863  0568  0097               	movwf	23	;volatile
  2864                           
  2865                           ;main.c: 150:     TMR1L=0xDC;
  2866  0569  30DC               	movlw	220
  2867  056A  0096               	movwf	22	;volatile
  2868  056B                     l1953:
  2869                           
  2870                           ;main.c: 151:     PEIE=1;
  2871  056B  170B               	bsf	11,6	;volatile
  2872  056C                     l1955:
  2873                           
  2874                           ;main.c: 152:     GIE=1;
  2875  056C  178B               	bsf	11,7	;volatile
  2876  056D                     l1957:
  2877                           
  2878                           ;main.c: 153:     TMR1IE=1;
  2879  056D  0021               	movlb	1	; select bank1
  2880  056E  1411               	bsf	17,0	;volatile
  2881  056F                     l1959:
  2882                           
  2883                           ;main.c: 154:     T1CONbits.TMR1ON=1;
  2884  056F  0020               	movlb	0	; select bank0
  2885  0570  1418               	bsf	24,0	;volatile
  2886  0571                     l375:
  2887  0571  0008               	return
  2888  0572                     __end_of_timer1_Init:
  2889                           
  2890                           	psect	text2
  2891  0572                     __ptext2:	
  2892 ;; *************** function _timer0_Init *****************
  2893 ;; Defined at:
  2894 ;;		line 128 in file "main.c"
  2895 ;; Parameters:    Size  Location     Type
  2896 ;;		None
  2897 ;; Auto vars:     Size  Location     Type
  2898 ;;		None
  2899 ;; Return value:  Size  Location     Type
  2900 ;;                  1    wreg      void 
  2901 ;; Registers used:
  2902 ;;		wreg
  2903 ;; Tracked objects:
  2904 ;;		On entry : 0/0
  2905 ;;		On exit  : 0/0
  2906 ;;		Unchanged: 0/0
  2907 ;; Data sizes:     COMMON   BANK0   BANK1   BANK2   BANK3   BANK4   BANK5   BANK6
  2908 ;;      Params:         0       0       0       0       0       0       0       0
  2909 ;;      Locals:         0       0       0       0       0       0       0       0
  2910 ;;      Temps:          0       0       0       0       0       0       0       0
  2911 ;;      Totals:         0       0       0       0       0       0       0       0
  2912 ;;Total ram usage:        0 bytes
  2913 ;; Hardware stack levels used:    1
  2914 ;; Hardware stack levels required when called:    2
  2915 ;; This function calls:
  2916 ;;		Nothing
  2917 ;; This function is called by:
  2918 ;;		_main
  2919 ;; This function uses a non-reentrant model
  2920 ;;
  2921                           
  2922                           
  2923                           ;psect for function _timer0_Init
  2924  0572                     _timer0_Init:
  2925  0572                     l1939:	
  2926                           ;incstack = 0
  2927                           ; Regs used in _timer0_Init: [wreg]
  2928                           
  2929                           
  2930                           ;main.c: 134:     OPTION_REG=0b10000101;
  2931  0572  3085               	movlw	133
  2932  0573  0021               	movlb	1	; select bank1
  2933  0574  0095               	movwf	21	;volatile
  2934  0575                     l1941:
  2935                           
  2936                           ;main.c: 136:     T0IF=0;
  2937  0575  110B               	bcf	11,2	;volatile
  2938  0576                     l1943:
  2939                           
  2940                           ;main.c: 137:     T0IE=1;
  2941  0576  168B               	bsf	11,5	;volatile
  2942                           
  2943                           ;main.c: 138:     TMR0=0x64;;
  2944  0577  3064               	movlw	100
  2945  0578  0020               	movlb	0	; select bank0
  2946  0579  0095               	movwf	21	;volatile
  2947  057A                     l1945:
  2948                           
  2949                           ;main.c: 139:     GIE=1;
  2950  057A  178B               	bsf	11,7	;volatile
  2951  057B                     l372:
  2952  057B  0008               	return
  2953  057C                     __end_of_timer0_Init:
  2954                           
  2955                           	psect	text3
  2956  0514                     __ptext3:	
  2957 ;; *************** function _eeprom_read *****************
  2958 ;; Defined at:
  2959 ;;		line 6 in file "C:\Program Files\Microchip\xc8\v2.20\pic\sources\c99\pic\__eeread.c"
  2960 ;; Parameters:    Size  Location     Type
  2961 ;;  addr            1    wreg     unsigned char 
  2962 ;; Auto vars:     Size  Location     Type
  2963 ;;  addr            1    3[BANK0 ] unsigned char 
  2964 ;; Return value:  Size  Location     Type
  2965 ;;                  1    wreg      unsigned char 
  2966 ;; Registers used:
  2967 ;;		wreg, status,2, status,0
  2968 ;; Tracked objects:
  2969 ;;		On entry : 0/0
  2970 ;;		On exit  : 0/0
  2971 ;;		Unchanged: 0/0
  2972 ;; Data sizes:     COMMON   BANK0   BANK1   BANK2   BANK3   BANK4   BANK5   BANK6
  2973 ;;      Params:         0       0       0       0       0       0       0       0
  2974 ;;      Locals:         0       1       0       0       0       0       0       0
  2975 ;;      Temps:          0       3       0       0       0       0       0       0
  2976 ;;      Totals:         0       4       0       0       0       0       0       0
  2977 ;;Total ram usage:        4 bytes
  2978 ;; Hardware stack levels used:    1
  2979 ;; Hardware stack levels required when called:    2
  2980 ;; This function calls:
  2981 ;;		Nothing
  2982 ;; This function is called by:
  2983 ;;		_main
  2984 ;; This function uses a non-reentrant model
  2985 ;;
  2986                           
  2987                           
  2988                           ;psect for function _eeprom_read
  2989  0514                     _eeprom_read:
  2990                           
  2991                           ;incstack = 0
  2992                           ; Regs used in _eeprom_read: [wreg+status,2+status,0]
  2993                           ;eeprom_read@addr stored from wreg
  2994  0514  0020               	movlb	0	; select bank0
  2995  0515  00D9               	movwf	eeprom_read@addr
  2996  0516                     l599:	
  2997                           ;C:\Program Files\Microchip\xc8\v2.20\pic\sources\c99\pic\__eeread.c: 6: eeprom_read(uns
      +                          igned char addr);C:\Program Files\Microchip\xc8\v2.20\pic\sources\c99\pic\__eeread.c: 7:
      +                           {;C:\Program Files\Microchip\xc8\v2.20\pic\sources\c99\pic\__eeread.c: 8:  do
  2998                           
  2999  0516  0064               	clrwdt	;# 
  3000  0517  0023               	movlb	3	; select bank3
  3001  0518  1895               	btfsc	21,1	;volsfr
  3002  0519  2D1B               	goto	u861
  3003  051A  2D1D               	goto	u860
  3004  051B                     u861:
  3005  051B  0020               	movlb	0	; select bank0
  3006  051C  2D16               	goto	l599
  3007  051D                     u860:
  3008  051D                     l1981:
  3009                           
  3010                           ;C:\Program Files\Microchip\xc8\v2.20\pic\sources\c99\pic\__eeread.c: 18:  return ( EEAD
      +                          R = addr, EECON1 &= 0x3F, EECON1bits.RD = 1, EEDATA);
  3011  051D  0020               	movlb	0	; select bank0
  3012  051E  0859               	movf	eeprom_read@addr,w
  3013  051F  00D6               	movwf	??_eeprom_read
  3014  0520  01D7               	clrf	??_eeprom_read+1
  3015  0521  0856               	movf	??_eeprom_read,w
  3016  0522  0023               	movlb	3	; select bank3
  3017  0523  0091               	movwf	17	;volatile
  3018  0524  0020               	movlb	0	; select bank0
  3019  0525  0857               	movf	??_eeprom_read+1,w
  3020  0526  0023               	movlb	3	; select bank3
  3021  0527  0092               	movwf	18	;volatile
  3022  0528  303F               	movlw	63
  3023  0529  0020               	movlb	0	; select bank0
  3024  052A  00D8               	movwf	??_eeprom_read+2
  3025  052B  0858               	movf	??_eeprom_read+2,w
  3026  052C  0023               	movlb	3	; select bank3
  3027  052D  0595               	andwf	21,f	;volsfr
  3028  052E  1415               	bsf	21,0	;volsfr
  3029  052F  0813               	movf	19,w	;volatile
  3030  0530                     l601:
  3031  0530  0008               	return
  3032  0531                     __end_of_eeprom_read:
  3033                           
  3034                           	psect	text4
  3035  03F3                     __ptext4:	
  3036 ;; *************** function ___lwmod *****************
  3037 ;; Defined at:
  3038 ;;		line 5 in file "C:\Program Files\Microchip\xc8\v2.20\pic\sources\c99\common\lwmod.c"
  3039 ;; Parameters:    Size  Location     Type
  3040 ;;  divisor         2    8[BANK0 ] unsigned int 
  3041 ;;  dividend        2   10[BANK0 ] unsigned int 
  3042 ;; Auto vars:     Size  Location     Type
  3043 ;;  counter         1   13[BANK0 ] unsigned char 
  3044 ;; Return value:  Size  Location     Type
  3045 ;;                  2    8[BANK0 ] unsigned int 
  3046 ;; Registers used:
  3047 ;;		wreg, status,2, status,0
  3048 ;; Tracked objects:
  3049 ;;		On entry : 0/0
  3050 ;;		On exit  : 0/0
  3051 ;;		Unchanged: 0/0
  3052 ;; Data sizes:     COMMON   BANK0   BANK1   BANK2   BANK3   BANK4   BANK5   BANK6
  3053 ;;      Params:         0       4       0       0       0       0       0       0
  3054 ;;      Locals:         0       1       0       0       0       0       0       0
  3055 ;;      Temps:          0       1       0       0       0       0       0       0
  3056 ;;      Totals:         0       6       0       0       0       0       0       0
  3057 ;;Total ram usage:        6 bytes
  3058 ;; Hardware stack levels used:    1
  3059 ;; Hardware stack levels required when called:    2
  3060 ;; This function calls:
  3061 ;;		Nothing
  3062 ;; This function is called by:
  3063 ;;		_main
  3064 ;; This function uses a non-reentrant model
  3065 ;;
  3066                           
  3067                           
  3068                           ;psect for function ___lwmod
  3069  03F3                     ___lwmod:
  3070  03F3                     l2011:	
  3071                           ;incstack = 0
  3072                           ; Regs used in ___lwmod: [wreg+status,2+status,0]
  3073                           
  3074  03F3  0020               	movlb	0	; select bank0
  3075  03F4  085E               	movf	___lwmod@divisor,w
  3076  03F5  045F               	iorwf	___lwmod@divisor+1,w
  3077  03F6  1903               	btfsc	3,2
  3078  03F7  2BF9               	goto	u941
  3079  03F8  2BFA               	goto	u940
  3080  03F9                     u941:
  3081  03F9  2C23               	goto	l2029
  3082  03FA                     u940:
  3083  03FA                     l2013:
  3084  03FA  01E3               	clrf	___lwmod@counter
  3085  03FB  0AE3               	incf	___lwmod@counter,f
  3086  03FC  2C06               	goto	l2019
  3087  03FD                     l2015:
  3088  03FD  3001               	movlw	1
  3089  03FE                     u955:
  3090  03FE  35DE               	lslf	___lwmod@divisor,f
  3091  03FF  0DDF               	rlf	___lwmod@divisor+1,f
  3092  0400  0B89               	decfsz	9,f
  3093  0401  2BFE               	goto	u955
  3094  0402                     l2017:
  3095  0402  3001               	movlw	1
  3096  0403  00E2               	movwf	??___lwmod
  3097  0404  0862               	movf	??___lwmod,w
  3098  0405  07E3               	addwf	___lwmod@counter,f
  3099  0406                     l2019:
  3100  0406  1FDF               	btfss	___lwmod@divisor+1,7
  3101  0407  2C09               	goto	u961
  3102  0408  2C0A               	goto	u960
  3103  0409                     u961:
  3104  0409  2BFD               	goto	l2015
  3105  040A                     u960:
  3106  040A                     l2021:
  3107  040A  085F               	movf	___lwmod@divisor+1,w
  3108  040B  0261               	subwf	___lwmod@dividend+1,w
  3109  040C  1D03               	skipz
  3110  040D  2C10               	goto	u975
  3111  040E  085E               	movf	___lwmod@divisor,w
  3112  040F  0260               	subwf	___lwmod@dividend,w
  3113  0410                     u975:
  3114  0410  1C03               	skipc
  3115  0411  2C13               	goto	u971
  3116  0412  2C14               	goto	u970
  3117  0413                     u971:
  3118  0413  2C18               	goto	l2025
  3119  0414                     u970:
  3120  0414                     l2023:
  3121  0414  085E               	movf	___lwmod@divisor,w
  3122  0415  02E0               	subwf	___lwmod@dividend,f
  3123  0416  085F               	movf	___lwmod@divisor+1,w
  3124  0417  3BE1               	subwfb	___lwmod@dividend+1,f
  3125  0418                     l2025:
  3126  0418  3001               	movlw	1
  3127  0419                     u985:
  3128  0419  36DF               	lsrf	___lwmod@divisor+1,f
  3129  041A  0CDE               	rrf	___lwmod@divisor,f
  3130  041B  0B89               	decfsz	9,f
  3131  041C  2C19               	goto	u985
  3132  041D                     l2027:
  3133  041D  3001               	movlw	1
  3134  041E  02E3               	subwf	___lwmod@counter,f
  3135  041F  1D03               	btfss	3,2
  3136  0420  2C22               	goto	u991
  3137  0421  2C23               	goto	u990
  3138  0422                     u991:
  3139  0422  2C0A               	goto	l2021
  3140  0423                     u990:
  3141  0423                     l2029:
  3142  0423  0861               	movf	___lwmod@dividend+1,w
  3143  0424  00DF               	movwf	?___lwmod+1
  3144  0425  0860               	movf	___lwmod@dividend,w
  3145  0426  00DE               	movwf	?___lwmod
  3146  0427                     l919:
  3147  0427  0008               	return
  3148  0428                     __end_of___lwmod:
  3149                           
  3150                           	psect	text5
  3151  037A                     __ptext5:	
  3152 ;; *************** function ___lwdiv *****************
  3153 ;; Defined at:
  3154 ;;		line 5 in file "C:\Program Files\Microchip\xc8\v2.20\pic\sources\c99\common\lwdiv.c"
  3155 ;; Parameters:    Size  Location     Type
  3156 ;;  divisor         2    0[BANK0 ] unsigned int 
  3157 ;;  dividend        2    2[BANK0 ] unsigned int 
  3158 ;; Auto vars:     Size  Location     Type
  3159 ;;  quotient        2    5[BANK0 ] unsigned int 
  3160 ;;  counter         1    7[BANK0 ] unsigned char 
  3161 ;; Return value:  Size  Location     Type
  3162 ;;                  2    0[BANK0 ] unsigned int 
  3163 ;; Registers used:
  3164 ;;		wreg, status,2, status,0
  3165 ;; Tracked objects:
  3166 ;;		On entry : 0/0
  3167 ;;		On exit  : 0/0
  3168 ;;		Unchanged: 0/0
  3169 ;; Data sizes:     COMMON   BANK0   BANK1   BANK2   BANK3   BANK4   BANK5   BANK6
  3170 ;;      Params:         0       4       0       0       0       0       0       0
  3171 ;;      Locals:         0       3       0       0       0       0       0       0
  3172 ;;      Temps:          0       1       0       0       0       0       0       0
  3173 ;;      Totals:         0       8       0       0       0       0       0       0
  3174 ;;Total ram usage:        8 bytes
  3175 ;; Hardware stack levels used:    1
  3176 ;; Hardware stack levels required when called:    2
  3177 ;; This function calls:
  3178 ;;		Nothing
  3179 ;; This function is called by:
  3180 ;;		_main
  3181 ;; This function uses a non-reentrant model
  3182 ;;
  3183                           
  3184                           
  3185                           ;psect for function ___lwdiv
  3186  037A                     ___lwdiv:
  3187  037A                     l1985:	
  3188                           ;incstack = 0
  3189                           ; Regs used in ___lwdiv: [wreg+status,2+status,0]
  3190                           
  3191  037A  0020               	movlb	0	; select bank0
  3192  037B  01DB               	clrf	___lwdiv@quotient
  3193  037C  01DC               	clrf	___lwdiv@quotient+1
  3194  037D                     l1987:
  3195  037D  0856               	movf	___lwdiv@divisor,w
  3196  037E  0457               	iorwf	___lwdiv@divisor+1,w
  3197  037F  1903               	btfsc	3,2
  3198  0380  2B82               	goto	u871
  3199  0381  2B83               	goto	u870
  3200  0382                     u871:
  3201  0382  2BB2               	goto	l2007
  3202  0383                     u870:
  3203  0383                     l1989:
  3204  0383  01DD               	clrf	___lwdiv@counter
  3205  0384  0ADD               	incf	___lwdiv@counter,f
  3206  0385  2B8F               	goto	l1995
  3207  0386                     l1991:
  3208  0386  3001               	movlw	1
  3209  0387                     u885:
  3210  0387  35D6               	lslf	___lwdiv@divisor,f
  3211  0388  0DD7               	rlf	___lwdiv@divisor+1,f
  3212  0389  0B89               	decfsz	9,f
  3213  038A  2B87               	goto	u885
  3214  038B                     l1993:
  3215  038B  3001               	movlw	1
  3216  038C  00DA               	movwf	??___lwdiv
  3217  038D  085A               	movf	??___lwdiv,w
  3218  038E  07DD               	addwf	___lwdiv@counter,f
  3219  038F                     l1995:
  3220  038F  1FD7               	btfss	___lwdiv@divisor+1,7
  3221  0390  2B92               	goto	u891
  3222  0391  2B93               	goto	u890
  3223  0392                     u891:
  3224  0392  2B86               	goto	l1991
  3225  0393                     u890:
  3226  0393                     l1997:
  3227  0393  3001               	movlw	1
  3228  0394                     u905:
  3229  0394  35DB               	lslf	___lwdiv@quotient,f
  3230  0395  0DDC               	rlf	___lwdiv@quotient+1,f
  3231  0396  0B89               	decfsz	9,f
  3232  0397  2B94               	goto	u905
  3233  0398  0857               	movf	___lwdiv@divisor+1,w
  3234  0399  0259               	subwf	___lwdiv@dividend+1,w
  3235  039A  1D03               	skipz
  3236  039B  2B9E               	goto	u915
  3237  039C  0856               	movf	___lwdiv@divisor,w
  3238  039D  0258               	subwf	___lwdiv@dividend,w
  3239  039E                     u915:
  3240  039E  1C03               	skipc
  3241  039F  2BA1               	goto	u911
  3242  03A0  2BA2               	goto	u910
  3243  03A1                     u911:
  3244  03A1  2BA7               	goto	l2003
  3245  03A2                     u910:
  3246  03A2                     l1999:
  3247  03A2  0856               	movf	___lwdiv@divisor,w
  3248  03A3  02D8               	subwf	___lwdiv@dividend,f
  3249  03A4  0857               	movf	___lwdiv@divisor+1,w
  3250  03A5  3BD9               	subwfb	___lwdiv@dividend+1,f
  3251  03A6                     l2001:
  3252  03A6  145B               	bsf	___lwdiv@quotient,0
  3253  03A7                     l2003:
  3254  03A7  3001               	movlw	1
  3255  03A8                     u925:
  3256  03A8  36D7               	lsrf	___lwdiv@divisor+1,f
  3257  03A9  0CD6               	rrf	___lwdiv@divisor,f
  3258  03AA  0B89               	decfsz	9,f
  3259  03AB  2BA8               	goto	u925
  3260  03AC                     l2005:
  3261  03AC  3001               	movlw	1
  3262  03AD  02DD               	subwf	___lwdiv@counter,f
  3263  03AE  1D03               	btfss	3,2
  3264  03AF  2BB1               	goto	u931
  3265  03B0  2BB2               	goto	u930
  3266  03B1                     u931:
  3267  03B1  2B93               	goto	l1997
  3268  03B2                     u930:
  3269  03B2                     l2007:
  3270  03B2  085C               	movf	___lwdiv@quotient+1,w
  3271  03B3  00D7               	movwf	?___lwdiv+1
  3272  03B4  085B               	movf	___lwdiv@quotient,w
  3273  03B5  00D6               	movwf	?___lwdiv
  3274  03B6                     l909:
  3275  03B6  0008               	return
  3276  03B7                     __end_of___lwdiv:
  3277                           
  3278                           	psect	text6
  3279  02E5                     __ptext6:	
  3280 ;; *************** function _TM1721_Write_StringS *****************
  3281 ;; Defined at:
  3282 ;;		line 157 in file "./TM1721.h"
  3283 ;; Parameters:    Size  Location     Type
  3284 ;;  dat             1    wreg     PTR unsigned char 
  3285 ;;		 -> dat(9), 
  3286 ;; Auto vars:     Size  Location     Type
  3287 ;;  dat             1    9[BANK0 ] PTR unsigned char 
  3288 ;;		 -> dat(9), 
  3289 ;; Return value:  Size  Location     Type
  3290 ;;                  1    wreg      void 
  3291 ;; Registers used:
  3292 ;;		wreg, fsr1l, fsr1h, status,2, status,0, pclath, cstack
  3293 ;; Tracked objects:
  3294 ;;		On entry : 0/0
  3295 ;;		On exit  : 0/0
  3296 ;;		Unchanged: 0/0
  3297 ;; Data sizes:     COMMON   BANK0   BANK1   BANK2   BANK3   BANK4   BANK5   BANK6
  3298 ;;      Params:         0       0       0       0       0       0       0       0
  3299 ;;      Locals:         0       1       0       0       0       0       0       0
  3300 ;;      Temps:          0       0       0       0       0       0       0       0
  3301 ;;      Totals:         0       1       0       0       0       0       0       0
  3302 ;;Total ram usage:        1 bytes
  3303 ;; Hardware stack levels used:    1
  3304 ;; Hardware stack levels required when called:    4
  3305 ;; This function calls:
  3306 ;;		_TM1721_Write_Byte
  3307 ;; This function is called by:
  3308 ;;		_main
  3309 ;; This function uses a non-reentrant model
  3310 ;;
  3311                           
  3312                           
  3313                           ;psect for function _TM1721_Write_StringS
  3314  02E5                     _TM1721_Write_StringS:
  3315                           
  3316                           ;incstack = 0
  3317                           ; Regs used in _TM1721_Write_StringS: [wreg+fsr1l+fsr1h+status,2+status,0+pclath+cstack]
  3318                           ;TM1721_Write_StringS@dat stored from wreg
  3319  02E5  0020               	movlb	0	; select bank0
  3320  02E6  00DF               	movwf	TM1721_Write_StringS@dat
  3321  02E7                     l1847:
  3322                           
  3323                           ;./TM1721.h: 157: void TM1721_Write_StringS(unsigned char *dat);./TM1721.h: 158: {;./TM1
      +                          721.h: 159:   RD7=1;
  3324  02E7  178F               	bsf	15,7	;volatile
  3325  02E8                     l1849:
  3326                           
  3327                           ;./TM1721.h: 160:   TM1721_Write_Byte(0b01000100);
  3328  02E8  3044               	movlw	68
  3329  02E9  3184  24B0  3182   	fcall	_TM1721_Write_Byte
  3330  02EC                     l1851:
  3331                           
  3332                           ;./TM1721.h: 162:   RD7=1;
  3333  02EC  0020               	movlb	0	; select bank0
  3334  02ED  178F               	bsf	15,7	;volatile
  3335                           
  3336                           ;./TM1721.h: 163:   TM1721_Write_Byte(0xc0);
  3337  02EE  30C0               	movlw	192
  3338  02EF  3184  24B0  3182   	fcall	_TM1721_Write_Byte
  3339  02F2                     l1853:
  3340                           
  3341                           ;./TM1721.h: 164:   TM1721_Write_Byte(dat[0]);
  3342  02F2  0020               	movlb	0	; select bank0
  3343  02F3  085F               	movf	TM1721_Write_StringS@dat,w
  3344  02F4  0086               	movwf	6
  3345  02F5  0187               	clrf	7
  3346  02F6  0801               	movf	1,w
  3347  02F7  3184  24B0  3182   	fcall	_TM1721_Write_Byte
  3348  02FA                     l1855:
  3349                           
  3350                           ;./TM1721.h: 166:   RD7=1;
  3351  02FA  0020               	movlb	0	; select bank0
  3352  02FB  178F               	bsf	15,7	;volatile
  3353  02FC                     l1857:
  3354                           
  3355                           ;./TM1721.h: 167:   TM1721_Write_Byte(0xc1);
  3356  02FC  30C1               	movlw	193
  3357  02FD  3184  24B0  3182   	fcall	_TM1721_Write_Byte
  3358                           
  3359                           ;./TM1721.h: 168:   TM1721_Write_Byte(dat[1]);
  3360  0300  0020               	movlb	0	; select bank0
  3361  0301  0A5F               	incf	TM1721_Write_StringS@dat,w
  3362  0302  0086               	movwf	6
  3363  0303  0187               	clrf	7
  3364  0304  0801               	movf	1,w
  3365  0305  3184  24B0  3182   	fcall	_TM1721_Write_Byte
  3366  0308                     l1859:
  3367                           
  3368                           ;./TM1721.h: 170:   RD7=1;
  3369  0308  0020               	movlb	0	; select bank0
  3370  0309  178F               	bsf	15,7	;volatile
  3371  030A                     l1861:
  3372                           
  3373                           ;./TM1721.h: 171:   TM1721_Write_Byte(0xc2);
  3374  030A  30C2               	movlw	194
  3375  030B  3184  24B0  3182   	fcall	_TM1721_Write_Byte
  3376  030E                     l1863:
  3377                           
  3378                           ;./TM1721.h: 172:   TM1721_Write_Byte(dat[2]);
  3379  030E  0020               	movlb	0	; select bank0
  3380  030F  085F               	movf	TM1721_Write_StringS@dat,w
  3381  0310  3E02               	addlw	2
  3382  0311  0086               	movwf	6
  3383  0312  0187               	clrf	7
  3384  0313  0801               	movf	1,w
  3385  0314  3184  24B0  3182   	fcall	_TM1721_Write_Byte
  3386  0317                     l1865:
  3387                           
  3388                           ;./TM1721.h: 174:   RD7=1;
  3389  0317  0020               	movlb	0	; select bank0
  3390  0318  178F               	bsf	15,7	;volatile
  3391                           
  3392                           ;./TM1721.h: 175:   TM1721_Write_Byte(0xc3);
  3393  0319  30C3               	movlw	195
  3394  031A  3184  24B0  3182   	fcall	_TM1721_Write_Byte
  3395  031D                     l1867:
  3396                           
  3397                           ;./TM1721.h: 176:   TM1721_Write_Byte(dat[3]);
  3398  031D  0020               	movlb	0	; select bank0
  3399  031E  085F               	movf	TM1721_Write_StringS@dat,w
  3400  031F  3E03               	addlw	3
  3401  0320  0086               	movwf	6
  3402  0321  0187               	clrf	7
  3403  0322  0801               	movf	1,w
  3404  0323  3184  24B0  3182   	fcall	_TM1721_Write_Byte
  3405  0326                     l1869:
  3406                           
  3407                           ;./TM1721.h: 178:   RD7=1;
  3408  0326  0020               	movlb	0	; select bank0
  3409  0327  178F               	bsf	15,7	;volatile
  3410  0328                     l1871:
  3411                           
  3412                           ;./TM1721.h: 179:   TM1721_Write_Byte(0xc4);
  3413  0328  30C4               	movlw	196
  3414  0329  3184  24B0  3182   	fcall	_TM1721_Write_Byte
  3415                           
  3416                           ;./TM1721.h: 180:   TM1721_Write_Byte(dat[4]);
  3417  032C  0020               	movlb	0	; select bank0
  3418  032D  085F               	movf	TM1721_Write_StringS@dat,w
  3419  032E  3E04               	addlw	4
  3420  032F  0086               	movwf	6
  3421  0330  0187               	clrf	7
  3422  0331  0801               	movf	1,w
  3423  0332  3184  24B0  3182   	fcall	_TM1721_Write_Byte
  3424  0335                     l1873:
  3425                           
  3426                           ;./TM1721.h: 182:   RD7=1;
  3427  0335  0020               	movlb	0	; select bank0
  3428  0336  178F               	bsf	15,7	;volatile
  3429  0337                     l1875:
  3430                           
  3431                           ;./TM1721.h: 183:   TM1721_Write_Byte(0xc5);
  3432  0337  30C5               	movlw	197
  3433  0338  3184  24B0  3182   	fcall	_TM1721_Write_Byte
  3434  033B                     l1877:
  3435                           
  3436                           ;./TM1721.h: 184:   TM1721_Write_Byte(dat[5]);
  3437  033B  0020               	movlb	0	; select bank0
  3438  033C  085F               	movf	TM1721_Write_StringS@dat,w
  3439  033D  3E05               	addlw	5
  3440  033E  0086               	movwf	6
  3441  033F  0187               	clrf	7
  3442  0340  0801               	movf	1,w
  3443  0341  3184  24B0  3182   	fcall	_TM1721_Write_Byte
  3444  0344                     l1879:
  3445                           
  3446                           ;./TM1721.h: 186:   RD7=1;
  3447  0344  0020               	movlb	0	; select bank0
  3448  0345  178F               	bsf	15,7	;volatile
  3449                           
  3450                           ;./TM1721.h: 187:   TM1721_Write_Byte(0xc6);
  3451  0346  30C6               	movlw	198
  3452  0347  3184  24B0  3182   	fcall	_TM1721_Write_Byte
  3453  034A                     l1881:
  3454                           
  3455                           ;./TM1721.h: 188:   TM1721_Write_Byte(dat[6]);
  3456  034A  0020               	movlb	0	; select bank0
  3457  034B  085F               	movf	TM1721_Write_StringS@dat,w
  3458  034C  3E06               	addlw	6
  3459  034D  0086               	movwf	6
  3460  034E  0187               	clrf	7
  3461  034F  0801               	movf	1,w
  3462  0350  3184  24B0  3182   	fcall	_TM1721_Write_Byte
  3463  0353                     l1883:
  3464                           
  3465                           ;./TM1721.h: 190:   RD7=1;
  3466  0353  0020               	movlb	0	; select bank0
  3467  0354  178F               	bsf	15,7	;volatile
  3468  0355                     l1885:
  3469                           
  3470                           ;./TM1721.h: 191:   TM1721_Write_Byte(0xc7);
  3471  0355  30C7               	movlw	199
  3472  0356  3184  24B0  3182   	fcall	_TM1721_Write_Byte
  3473                           
  3474                           ;./TM1721.h: 192:   TM1721_Write_Byte(dat[7]);
  3475  0359  0020               	movlb	0	; select bank0
  3476  035A  085F               	movf	TM1721_Write_StringS@dat,w
  3477  035B  3E07               	addlw	7
  3478  035C  0086               	movwf	6
  3479  035D  0187               	clrf	7
  3480  035E  0801               	movf	1,w
  3481  035F  3184  24B0  3182   	fcall	_TM1721_Write_Byte
  3482  0362                     l1887:
  3483                           
  3484                           ;./TM1721.h: 194:   RD7=1;
  3485  0362  0020               	movlb	0	; select bank0
  3486  0363  178F               	bsf	15,7	;volatile
  3487  0364                     l1889:
  3488                           
  3489                           ;./TM1721.h: 195:   TM1721_Write_Byte(0xc8);
  3490  0364  30C8               	movlw	200
  3491  0365  3184  24B0  3182   	fcall	_TM1721_Write_Byte
  3492  0368                     l1891:
  3493                           
  3494                           ;./TM1721.h: 196:   TM1721_Write_Byte(dat[8]);
  3495  0368  0020               	movlb	0	; select bank0
  3496  0369  085F               	movf	TM1721_Write_StringS@dat,w
  3497  036A  3E08               	addlw	8
  3498  036B  0086               	movwf	6
  3499  036C  0187               	clrf	7
  3500  036D  0801               	movf	1,w
  3501  036E  3184  24B0  3182   	fcall	_TM1721_Write_Byte
  3502  0371                     l1893:
  3503                           
  3504                           ;./TM1721.h: 198:   RD7=1;
  3505  0371  0020               	movlb	0	; select bank0
  3506  0372  178F               	bsf	15,7	;volatile
  3507                           
  3508                           ;./TM1721.h: 199:   TM1721_Write_Byte(0x97);
  3509  0373  3097               	movlw	151
  3510  0374  3184  24B0  3182   	fcall	_TM1721_Write_Byte
  3511  0377                     l1895:
  3512                           
  3513                           ;./TM1721.h: 200:   RD7=1;
  3514  0377  0020               	movlb	0	; select bank0
  3515  0378  178F               	bsf	15,7	;volatile
  3516  0379                     l251:
  3517  0379  0008               	return
  3518  037A                     __end_of_TM1721_Write_StringS:
  3519                           
  3520                           	psect	text7
  3521  0459                     __ptext7:	
  3522 ;; *************** function _TM1721_DisplayClear *****************
  3523 ;; Defined at:
  3524 ;;		line 114 in file "./TM1721.h"
  3525 ;; Parameters:    Size  Location     Type
  3526 ;;  p               1    wreg     unsigned char 
  3527 ;; Auto vars:     Size  Location     Type
  3528 ;;  p               1   10[BANK0 ] unsigned char 
  3529 ;;  h               1   11[BANK0 ] unsigned char 
  3530 ;; Return value:  Size  Location     Type
  3531 ;;                  1    wreg      void 
  3532 ;; Registers used:
  3533 ;;		wreg, status,2, status,0, pclath, cstack
  3534 ;; Tracked objects:
  3535 ;;		On entry : 0/0
  3536 ;;		On exit  : 0/0
  3537 ;;		Unchanged: 0/0
  3538 ;; Data sizes:     COMMON   BANK0   BANK1   BANK2   BANK3   BANK4   BANK5   BANK6
  3539 ;;      Params:         0       0       0       0       0       0       0       0
  3540 ;;      Locals:         0       2       0       0       0       0       0       0
  3541 ;;      Temps:          0       1       0       0       0       0       0       0
  3542 ;;      Totals:         0       3       0       0       0       0       0       0
  3543 ;;Total ram usage:        3 bytes
  3544 ;; Hardware stack levels used:    1
  3545 ;; Hardware stack levels required when called:    4
  3546 ;; This function calls:
  3547 ;;		_TM1721_Write_Byte
  3548 ;; This function is called by:
  3549 ;;		_main
  3550 ;; This function uses a non-reentrant model
  3551 ;;
  3552                           
  3553                           
  3554                           ;psect for function _TM1721_DisplayClear
  3555  0459                     _TM1721_DisplayClear:
  3556                           
  3557                           ;incstack = 0
  3558                           ; Regs used in _TM1721_DisplayClear: [wreg+status,2+status,0+pclath+cstack]
  3559                           ;TM1721_DisplayClear@p stored from wreg
  3560  0459  0020               	movlb	0	; select bank0
  3561  045A  00E0               	movwf	TM1721_DisplayClear@p
  3562  045B                     l1829:
  3563                           
  3564                           ;./TM1721.h: 114: void TM1721_DisplayClear(unsigned char p);./TM1721.h: 115:  {;./TM1721
      +                          .h: 116:  unsigned char h;;./TM1721.h: 117:  RD7=1;
  3565  045B  178F               	bsf	15,7	;volatile
  3566                           
  3567                           ;./TM1721.h: 118:   RD6=1;
  3568  045C  170F               	bsf	15,6	;volatile
  3569                           
  3570                           ;./TM1721.h: 119:   RD5=1;
  3571  045D  168F               	bsf	15,5	;volatile
  3572  045E                     l1831:
  3573                           
  3574                           ;./TM1721.h: 120:   TM1721_Write_Byte(0x08);
  3575  045E  3008               	movlw	8
  3576  045F  3184  24B0  3184   	fcall	_TM1721_Write_Byte
  3577  0462                     l1833:
  3578                           
  3579                           ;./TM1721.h: 121:   RD7=1;
  3580  0462  0020               	movlb	0	; select bank0
  3581  0463  178F               	bsf	15,7	;volatile
  3582                           
  3583                           ;./TM1721.h: 122:   TM1721_Write_Byte(0x40);
  3584  0464  3040               	movlw	64
  3585  0465  3184  24B0  3184   	fcall	_TM1721_Write_Byte
  3586  0468                     l1835:
  3587                           
  3588                           ;./TM1721.h: 123:   RD7=1;
  3589  0468  0020               	movlb	0	; select bank0
  3590  0469  178F               	bsf	15,7	;volatile
  3591                           
  3592                           ;./TM1721.h: 124:  TM1721_Write_Byte(0xC0);
  3593  046A  30C0               	movlw	192
  3594  046B  3184  24B0  3184   	fcall	_TM1721_Write_Byte
  3595  046E                     l1837:
  3596                           
  3597                           ;./TM1721.h: 125:  for (h = 0; h <p; ++h)
  3598  046E  0020               	movlb	0	; select bank0
  3599  046F  01E1               	clrf	TM1721_DisplayClear@h
  3600  0470  2C7A               	goto	l1843
  3601  0471                     l1839:
  3602                           
  3603                           ;./TM1721.h: 126:   {;./TM1721.h: 127:   TM1721_Write_Byte(0x00);
  3604  0471  3000               	movlw	0
  3605  0472  3184  24B0  3184   	fcall	_TM1721_Write_Byte
  3606  0475                     l1841:
  3607                           
  3608                           ;./TM1721.h: 128:   }
  3609  0475  3001               	movlw	1
  3610  0476  0020               	movlb	0	; select bank0
  3611  0477  00DF               	movwf	??_TM1721_DisplayClear
  3612  0478  085F               	movf	??_TM1721_DisplayClear,w
  3613  0479  07E1               	addwf	TM1721_DisplayClear@h,f
  3614  047A                     l1843:
  3615  047A  0860               	movf	TM1721_DisplayClear@p,w
  3616  047B  0261               	subwf	TM1721_DisplayClear@h,w
  3617  047C  1C03               	skipc
  3618  047D  2C7F               	goto	u781
  3619  047E  2C80               	goto	u780
  3620  047F                     u781:
  3621  047F  2C71               	goto	l1839
  3622  0480                     u780:
  3623  0480                     l241:
  3624                           
  3625                           ;./TM1721.h: 129:   RD7=1;
  3626  0480  178F               	bsf	15,7	;volatile
  3627  0481                     l1845:
  3628                           
  3629                           ;./TM1721.h: 130:   TM1721_Write_Byte(0x97);
  3630  0481  3097               	movlw	151
  3631  0482  3184  24B0  3184   	fcall	_TM1721_Write_Byte
  3632  0485                     l242:
  3633  0485  0008               	return
  3634  0486                     __end_of_TM1721_DisplayClear:
  3635                           
  3636                           	psect	text8
  3637  04B0                     __ptext8:	
  3638 ;; *************** function _TM1721_Write_Byte *****************
  3639 ;; Defined at:
  3640 ;;		line 49 in file "./TM1721.h"
  3641 ;; Parameters:    Size  Location     Type
  3642 ;;  dat             1    wreg     unsigned char 
  3643 ;; Auto vars:     Size  Location     Type
  3644 ;;  dat             1    7[BANK0 ] unsigned char 
  3645 ;;  i               1    8[BANK0 ] unsigned char 
  3646 ;; Return value:  Size  Location     Type
  3647 ;;                  1    wreg      void 
  3648 ;; Registers used:
  3649 ;;		wreg, status,2, status,0, pclath, cstack
  3650 ;; Tracked objects:
  3651 ;;		On entry : 0/0
  3652 ;;		On exit  : 0/0
  3653 ;;		Unchanged: 0/0
  3654 ;; Data sizes:     COMMON   BANK0   BANK1   BANK2   BANK3   BANK4   BANK5   BANK6
  3655 ;;      Params:         0       0       0       0       0       0       0       0
  3656 ;;      Locals:         0       2       0       0       0       0       0       0
  3657 ;;      Temps:          0       1       0       0       0       0       0       0
  3658 ;;      Totals:         0       3       0       0       0       0       0       0
  3659 ;;Total ram usage:        3 bytes
  3660 ;; Hardware stack levels used:    1
  3661 ;; Hardware stack levels required when called:    3
  3662 ;; This function calls:
  3663 ;;		_TM1721_Delay_ms
  3664 ;; This function is called by:
  3665 ;;		_TM1721_DisplayClear
  3666 ;;		_TM1721_Write_StringS
  3667 ;;		_main
  3668 ;;		_xianshi
  3669 ;;		_TM1721_Display
  3670 ;;		_TM1721_Write_String
  3671 ;;		_TM1721_Key_Scan
  3672 ;;		_TM1721_Init
  3673 ;; This function uses a non-reentrant model
  3674 ;;
  3675                           
  3676                           
  3677                           ;psect for function _TM1721_Write_Byte
  3678  04B0                     _TM1721_Write_Byte:
  3679                           
  3680                           ;incstack = 0
  3681                           ; Regs used in _TM1721_Write_Byte: [wreg+status,2+status,0+pclath+cstack]
  3682                           ;TM1721_Write_Byte@dat stored from wreg
  3683  04B0  0020               	movlb	0	; select bank0
  3684  04B1  00DD               	movwf	TM1721_Write_Byte@dat
  3685  04B2                     l1813:
  3686                           
  3687                           ;./TM1721.h: 49: void TM1721_Write_Byte(unsigned char dat);./TM1721.h: 50: {;./TM1721.h:
      +                           51:  unsigned char i;;./TM1721.h: 52:  TM1721_Delay_ms(2);
  3688  04B2  3002               	movlw	2
  3689  04B3  00D6               	movwf	TM1721_Delay_ms@n
  3690  04B4  3000               	movlw	0
  3691  04B5  00D7               	movwf	TM1721_Delay_ms@n+1
  3692  04B6  3184  24D4  3184   	fcall	_TM1721_Delay_ms
  3693  04B9                     l1815:
  3694                           
  3695                           ;./TM1721.h: 53:  RD7=0;
  3696  04B9  0020               	movlb	0	; select bank0
  3697  04BA  138F               	bcf	15,7	;volatile
  3698  04BB                     l1817:
  3699                           
  3700                           ;./TM1721.h: 54:  for(i=0;i<8;i++)
  3701  04BB  01DE               	clrf	TM1721_Write_Byte@i
  3702  04BC                     l224:
  3703                           
  3704                           ;./TM1721.h: 55:  {;./TM1721.h: 56:   RD6=0;
  3705  04BC  130F               	bcf	15,6	;volatile
  3706                           
  3707                           ;./TM1721.h: 57:   RD5=dat&0x01;
  3708  04BD  185D               	btfsc	TM1721_Write_Byte@dat,0
  3709  04BE  2CC0               	goto	u751
  3710  04BF  2CC3               	goto	u750
  3711  04C0                     u751:
  3712  04C0  0020               	movlb	0	; select bank0
  3713  04C1  168F               	bsf	15,5	;volatile
  3714  04C2  2CC5               	goto	u764
  3715  04C3                     u750:
  3716  04C3  0020               	movlb	0	; select bank0
  3717  04C4  128F               	bcf	15,5	;volatile
  3718  04C5                     u764:
  3719                           
  3720                           ;./TM1721.h: 58:    RD6=1;
  3721  04C5  170F               	bsf	15,6	;volatile
  3722  04C6                     l1823:
  3723                           
  3724                           ;./TM1721.h: 59:   dat>>=1;
  3725  04C6  1003               	clrc
  3726  04C7  0CDD               	rrf	TM1721_Write_Byte@dat,f
  3727  04C8                     l1825:
  3728                           
  3729                           ;./TM1721.h: 60:  }
  3730  04C8  3001               	movlw	1
  3731  04C9  00DC               	movwf	??_TM1721_Write_Byte
  3732  04CA  085C               	movf	??_TM1721_Write_Byte,w
  3733  04CB  07DE               	addwf	TM1721_Write_Byte@i,f
  3734  04CC                     l1827:
  3735  04CC  3008               	movlw	8
  3736  04CD  025E               	subwf	TM1721_Write_Byte@i,w
  3737  04CE  1C03               	skipc
  3738  04CF  2CD1               	goto	u771
  3739  04D0  2CD2               	goto	u770
  3740  04D1                     u771:
  3741  04D1  2CBC               	goto	l224
  3742  04D2                     u770:
  3743  04D2                     l225:
  3744                           
  3745                           ;./TM1721.h: 61: RD7=0;
  3746  04D2  138F               	bcf	15,7	;volatile
  3747  04D3                     l226:
  3748  04D3  0008               	return
  3749  04D4                     __end_of_TM1721_Write_Byte:
  3750                           
  3751                           	psect	text9
  3752  04D4                     __ptext9:	
  3753 ;; *************** function _TM1721_Delay_ms *****************
  3754 ;; Defined at:
  3755 ;;		line 31 in file "./TM1721.h"
  3756 ;; Parameters:    Size  Location     Type
  3757 ;;  n               2    0[BANK0 ] unsigned int 
  3758 ;; Auto vars:     Size  Location     Type
  3759 ;;  j               2    3[BANK0 ] unsigned int 
  3760 ;;  k               1    5[BANK0 ] unsigned char 
  3761 ;; Return value:  Size  Location     Type
  3762 ;;                  1    wreg      void 
  3763 ;; Registers used:
  3764 ;;		wreg, status,2, status,0
  3765 ;; Tracked objects:
  3766 ;;		On entry : 0/0
  3767 ;;		On exit  : 0/0
  3768 ;;		Unchanged: 0/0
  3769 ;; Data sizes:     COMMON   BANK0   BANK1   BANK2   BANK3   BANK4   BANK5   BANK6
  3770 ;;      Params:         0       2       0       0       0       0       0       0
  3771 ;;      Locals:         0       3       0       0       0       0       0       0
  3772 ;;      Temps:          0       1       0       0       0       0       0       0
  3773 ;;      Totals:         0       6       0       0       0       0       0       0
  3774 ;;Total ram usage:        6 bytes
  3775 ;; Hardware stack levels used:    1
  3776 ;; Hardware stack levels required when called:    2
  3777 ;; This function calls:
  3778 ;;		Nothing
  3779 ;; This function is called by:
  3780 ;;		_TM1721_Write_Byte
  3781 ;;		_TM1721_Key_Scan
  3782 ;;		_TM1721_Init
  3783 ;; This function uses a non-reentrant model
  3784 ;;
  3785                           
  3786                           
  3787                           ;psect for function _TM1721_Delay_ms
  3788  04D4                     _TM1721_Delay_ms:
  3789  04D4                     l1801:	
  3790                           ;incstack = 0
  3791                           ; Regs used in _TM1721_Delay_ms: [wreg+status,2+status,0]
  3792                           
  3793                           
  3794                           ;./TM1721.h: 31: void TM1721_Delay_ms( unsigned int n);./TM1721.h: 32: { unsigned int j;
      +                          ;./TM1721.h: 33:   char k ;;./TM1721.h: 34:     for ( j=0 ; j<n ; j++ )
  3795  04D4  0020               	movlb	0	; select bank0
  3796  04D5  01D9               	clrf	TM1721_Delay_ms@j
  3797  04D6  01DA               	clrf	TM1721_Delay_ms@j+1
  3798  04D7  2CE9               	goto	l210
  3799  04D8                     l1803:
  3800                           
  3801                           ;./TM1721.h: 35:     for ( k=246 ; k>0 ; k-- ) __nop();
  3802  04D8  30F6               	movlw	246
  3803  04D9  00D8               	movwf	??_TM1721_Delay_ms
  3804  04DA  0858               	movf	??_TM1721_Delay_ms,w
  3805  04DB  00DB               	movwf	TM1721_Delay_ms@k
  3806  04DC                     l212:
  3807  04DC  0000               	nop
  3808  04DD                     l1809:
  3809  04DD  3001               	movlw	1
  3810  04DE  0020               	movlb	0	; select bank0
  3811  04DF  02DB               	subwf	TM1721_Delay_ms@k,f
  3812  04E0  085B               	movf	TM1721_Delay_ms@k,w
  3813  04E1  1D03               	btfss	3,2
  3814  04E2  2CE4               	goto	u731
  3815  04E3  2CE5               	goto	u730
  3816  04E4                     u731:
  3817  04E4  2CDC               	goto	l212
  3818  04E5                     u730:
  3819  04E5                     l1811:
  3820  04E5  3001               	movlw	1
  3821  04E6  07D9               	addwf	TM1721_Delay_ms@j,f
  3822  04E7  3000               	movlw	0
  3823  04E8  3DDA               	addwfc	TM1721_Delay_ms@j+1,f
  3824  04E9                     l210:
  3825  04E9  0857               	movf	TM1721_Delay_ms@n+1,w
  3826  04EA  025A               	subwf	TM1721_Delay_ms@j+1,w
  3827  04EB  1D03               	skipz
  3828  04EC  2CEF               	goto	u745
  3829  04ED  0856               	movf	TM1721_Delay_ms@n,w
  3830  04EE  0259               	subwf	TM1721_Delay_ms@j,w
  3831  04EF                     u745:
  3832  04EF  1C03               	skipc
  3833  04F0  2CF2               	goto	u741
  3834  04F1  2CF3               	goto	u740
  3835  04F2                     u741:
  3836  04F2  2CD8               	goto	l1803
  3837  04F3                     u740:
  3838  04F3                     l215:
  3839  04F3  0008               	return
  3840  04F4                     __end_of_TM1721_Delay_ms:
  3841                           
  3842                           	psect	text10
  3843  0531                     __ptext10:	
  3844 ;; *************** function _Init *****************
  3845 ;; Defined at:
  3846 ;;		line 92 in file "main.c"
  3847 ;; Parameters:    Size  Location     Type
  3848 ;;		None
  3849 ;; Auto vars:     Size  Location     Type
  3850 ;;		None
  3851 ;; Return value:  Size  Location     Type
  3852 ;;                  1    wreg      void 
  3853 ;; Registers used:
  3854 ;;		wreg, status,2
  3855 ;; Tracked objects:
  3856 ;;		On entry : 0/0
  3857 ;;		On exit  : 0/0
  3858 ;;		Unchanged: 0/0
  3859 ;; Data sizes:     COMMON   BANK0   BANK1   BANK2   BANK3   BANK4   BANK5   BANK6
  3860 ;;      Params:         0       0       0       0       0       0       0       0
  3861 ;;      Locals:         0       0       0       0       0       0       0       0
  3862 ;;      Temps:          0       0       0       0       0       0       0       0
  3863 ;;      Totals:         0       0       0       0       0       0       0       0
  3864 ;;Total ram usage:        0 bytes
  3865 ;; Hardware stack levels used:    1
  3866 ;; Hardware stack levels required when called:    2
  3867 ;; This function calls:
  3868 ;;		Nothing
  3869 ;; This function is called by:
  3870 ;;		_main
  3871 ;; This function uses a non-reentrant model
  3872 ;;
  3873                           
  3874                           
  3875                           ;psect for function _Init
  3876  0531                     _Init:
  3877  0531                     l1933:	
  3878                           ;incstack = 0
  3879                           ; Regs used in _Init: [wreg+status,2]
  3880                           
  3881                           
  3882                           ;main.c: 96: PORTA = TRISA = 0x00;
  3883  0531  0021               	movlb	1	; select bank1
  3884  0532  018C               	clrf	12	;volatile
  3885  0533  0020               	movlb	0	; select bank0
  3886  0534  018C               	clrf	12	;volatile
  3887                           
  3888                           ;main.c: 97: PORTB = TRISB = 0x00;
  3889  0535  0021               	movlb	1	; select bank1
  3890  0536  018D               	clrf	13	;volatile
  3891  0537  0020               	movlb	0	; select bank0
  3892  0538  018D               	clrf	13	;volatile
  3893                           
  3894                           ;main.c: 98: PORTF = TRISF = 0x00;
  3895  0539  0026               	movlb	6	; select bank6
  3896  053A  018C               	clrf	12	;volatile
  3897  053B  0025               	movlb	5	; select bank5
  3898  053C  018C               	clrf	12	;volatile
  3899  053D                     l1935:
  3900                           
  3901                           ;main.c: 100:     TRISC=0XFA;
  3902  053D  30FA               	movlw	250
  3903  053E  0021               	movlb	1	; select bank1
  3904  053F  008E               	movwf	14	;volatile
  3905  0540                     l1937:
  3906                           
  3907                           ;main.c: 101:     TRISD=0X00;
  3908  0540  018F               	clrf	15	;volatile
  3909                           
  3910                           ;main.c: 102:     TRISE=0XC0;
  3911  0541  30C0               	movlw	192
  3912  0542  0090               	movwf	16	;volatile
  3913                           
  3914                           ;main.c: 105:     OSCCON= 0x68;
  3915  0543  3068               	movlw	104
  3916  0544  0099               	movwf	25	;volatile
  3917                           
  3918                           ;main.c: 106:     ANSELA=0X04;
  3919  0545  3004               	movlw	4
  3920  0546  0023               	movlb	3	; select bank3
  3921  0547  008C               	movwf	12	;volatile
  3922                           
  3923                           ;main.c: 107:     ADCON0=0x0C;
  3924  0548  300C               	movlw	12
  3925  0549  0021               	movlb	1	; select bank1
  3926  054A  009D               	movwf	29	;volatile
  3927                           
  3928                           ;main.c: 108:     ADCON1=0x10;
  3929  054B  3010               	movlw	16
  3930  054C  009E               	movwf	30	;volatile
  3931  054D                     l369:
  3932  054D  0008               	return
  3933  054E                     __end_of_Init:
  3934                           
  3935                           	psect	text11
  3936  04F4                     __ptext11:	
  3937 ;; *************** function _DELAY *****************
  3938 ;; Defined at:
  3939 ;;		line 58 in file "main.c"
  3940 ;; Parameters:    Size  Location     Type
  3941 ;;  n               2    0[BANK0 ] unsigned int 
  3942 ;; Auto vars:     Size  Location     Type
  3943 ;;  j               2    3[BANK0 ] unsigned int 
  3944 ;;  k               1    5[BANK0 ] unsigned char 
  3945 ;; Return value:  Size  Location     Type
  3946 ;;                  1    wreg      void 
  3947 ;; Registers used:
  3948 ;;		wreg, status,2, status,0
  3949 ;; Tracked objects:
  3950 ;;		On entry : 0/0
  3951 ;;		On exit  : 0/0
  3952 ;;		Unchanged: 0/0
  3953 ;; Data sizes:     COMMON   BANK0   BANK1   BANK2   BANK3   BANK4   BANK5   BANK6
  3954 ;;      Params:         0       2       0       0       0       0       0       0
  3955 ;;      Locals:         0       3       0       0       0       0       0       0
  3956 ;;      Temps:          0       1       0       0       0       0       0       0
  3957 ;;      Totals:         0       6       0       0       0       0       0       0
  3958 ;;Total ram usage:        6 bytes
  3959 ;; Hardware stack levels used:    1
  3960 ;; Hardware stack levels required when called:    2
  3961 ;; This function calls:
  3962 ;;		Nothing
  3963 ;; This function is called by:
  3964 ;;		_main
  3965 ;;		_adcinit
  3966 ;; This function uses a non-reentrant model
  3967 ;;
  3968                           
  3969                           
  3970                           ;psect for function _DELAY
  3971  04F4                     _DELAY:
  3972  04F4                     l1921:	
  3973                           ;incstack = 0
  3974                           ; Regs used in _DELAY: [wreg+status,2+status,0]
  3975                           
  3976                           
  3977                           ;main.c: 58:  void DELAY(unsigned int n);main.c: 59: { unsigned int j;;main.c: 60:   cha
      +                          r k ;;main.c: 61:     for ( j=0 ; j<n ; j++ )
  3978  04F4  0020               	movlb	0	; select bank0
  3979  04F5  01D9               	clrf	DELAY@j
  3980  04F6  01DA               	clrf	DELAY@j+1
  3981  04F7  2D09               	goto	l339
  3982  04F8                     l1923:
  3983                           
  3984                           ;main.c: 62:     for ( k=246 ; k>0 ; k-- ) __nop();
  3985  04F8  30F6               	movlw	246
  3986  04F9  00D8               	movwf	??_DELAY
  3987  04FA  0858               	movf	??_DELAY,w
  3988  04FB  00DB               	movwf	DELAY@k
  3989  04FC                     l341:
  3990  04FC  0000               	nop
  3991  04FD                     l1929:
  3992  04FD  3001               	movlw	1
  3993  04FE  0020               	movlb	0	; select bank0
  3994  04FF  02DB               	subwf	DELAY@k,f
  3995  0500  085B               	movf	DELAY@k,w
  3996  0501  1D03               	btfss	3,2
  3997  0502  2D04               	goto	u811
  3998  0503  2D05               	goto	u810
  3999  0504                     u811:
  4000  0504  2CFC               	goto	l341
  4001  0505                     u810:
  4002  0505                     l1931:
  4003  0505  3001               	movlw	1
  4004  0506  07D9               	addwf	DELAY@j,f
  4005  0507  3000               	movlw	0
  4006  0508  3DDA               	addwfc	DELAY@j+1,f
  4007  0509                     l339:
  4008  0509  0857               	movf	DELAY@n+1,w
  4009  050A  025A               	subwf	DELAY@j+1,w
  4010  050B  1D03               	skipz
  4011  050C  2D0F               	goto	u825
  4012  050D  0856               	movf	DELAY@n,w
  4013  050E  0259               	subwf	DELAY@j,w
  4014  050F                     u825:
  4015  050F  1C03               	skipc
  4016  0510  2D12               	goto	u821
  4017  0511  2D13               	goto	u820
  4018  0512                     u821:
  4019  0512  2CF8               	goto	l1923
  4020  0513                     u820:
  4021  0513                     l344:
  4022  0513  0008               	return
  4023  0514                     __end_of_DELAY:
  4024                           
  4025                           	psect	intentry
  4026  0004                     __pintentry:	
  4027 ;; *************** function _ISR *****************
  4028 ;; Defined at:
  4029 ;;		line 158 in file "main.c"
  4030 ;; Parameters:    Size  Location     Type
  4031 ;;		None
  4032 ;; Auto vars:     Size  Location     Type
  4033 ;;		None
  4034 ;; Return value:  Size  Location     Type
  4035 ;;                  1    wreg      void 
  4036 ;; Registers used:
  4037 ;;		wreg, fsr0l, fsr0h, status,2, status,0, pclath, cstack
  4038 ;; Tracked objects:
  4039 ;;		On entry : 0/0
  4040 ;;		On exit  : 0/0
  4041 ;;		Unchanged: 0/0
  4042 ;; Data sizes:     COMMON   BANK0   BANK1   BANK2   BANK3   BANK4   BANK5   BANK6
  4043 ;;      Params:         0       0       0       0       0       0       0       0
  4044 ;;      Locals:         0       0       0       0       0       0       0       0
  4045 ;;      Temps:          1       0       0       0       0       0       0       0
  4046 ;;      Totals:         1       0       0       0       0       0       0       0
  4047 ;;Total ram usage:        1 bytes
  4048 ;; Hardware stack levels used:    1
  4049 ;; Hardware stack levels required when called:    1
  4050 ;; This function calls:
  4051 ;;		_eeprom_write
  4052 ;;		i1___lwdiv
  4053 ;; This function is called by:
  4054 ;;		Interrupt level 1
  4055 ;; This function uses a non-reentrant model
  4056 ;;
  4057                           
  4058  0004                     _ISR:
  4059                           
  4060                           ;incstack = 0
  4061  0004  147E               	bsf	int$flags,0	;set compiler interrupt flag (level 1)
  4062                           
  4063                           ; Regs used in _ISR: [wreg-fsr0h+status,2+status,0+pclath+cstack]
  4064  0005  3180               	pagesel	$
  4065  0006                     i1l2173:
  4066                           
  4067                           ;main.c: 161:     if(TMR0IF==1)
  4068  0006  1D0B               	btfss	11,2	;volatile
  4069  0007  2809               	goto	u113_21
  4070  0008  280A               	goto	u113_20
  4071  0009                     u113_21:
  4072  0009  28A9               	goto	i1l2227
  4073  000A                     u113_20:
  4074  000A                     i1l2175:
  4075                           
  4076                           ;main.c: 162:     {;main.c: 163:     T0IF=0;
  4077  000A  110B               	bcf	11,2	;volatile
  4078  000B                     i1l2177:
  4079                           
  4080                           ;main.c: 164:     TMR0=0x64;;
  4081  000B  3064               	movlw	100
  4082  000C  0020               	movlb	0	; select bank0
  4083  000D  0095               	movwf	21	;volatile
  4084  000E                     i1l2179:
  4085                           
  4086                           ;main.c: 165:     if(WFLAG)
  4087  000E  084C               	movf	_WFLAG,w
  4088  000F  1903               	btfsc	3,2
  4089  0010  2812               	goto	u114_21
  4090  0011  2813               	goto	u114_20
  4091  0012                     u114_21:
  4092  0012  285B               	goto	i1l2205
  4093  0013                     u114_20:
  4094  0013                     i1l2181:
  4095                           
  4096                           ;main.c: 166:         {;main.c: 167:         if((TimeFLAG==0)|(TimeFLAG==1 && countM!=0)
      +                          )
  4097  0013  0879               	movf	_TimeFLAG,w
  4098  0014  1903               	btfsc	3,2
  4099  0015  2817               	goto	u115_21
  4100  0016  2818               	goto	u115_20
  4101  0017                     u115_21:
  4102  0017  2823               	goto	i1l2187
  4103  0018                     u115_20:
  4104  0018                     i1l2183:
  4105  0018  0379               	decf	_TimeFLAG,w
  4106  0019  1D03               	btfss	3,2
  4107  001A  281C               	goto	u116_21
  4108  001B  281D               	goto	u116_20
  4109  001C                     u116_21:
  4110  001C  2827               	goto	i1l382
  4111  001D                     u116_20:
  4112  001D                     i1l2185:
  4113  001D  0829               	movf	_countM,w
  4114  001E  042A               	iorwf	_countM+1,w
  4115  001F  1903               	btfsc	3,2
  4116  0020  2822               	goto	u117_21
  4117  0021  2823               	goto	u117_20
  4118  0022                     u117_21:
  4119  0022  2827               	goto	i1l382
  4120  0023                     u117_20:
  4121  0023                     i1l2187:
  4122                           
  4123                           ;main.c: 168:         {;main.c: 169:             temph++;
  4124  0023  3001               	movlw	1
  4125  0024  07AF               	addwf	_temph,f
  4126  0025  3000               	movlw	0
  4127  0026  3DB0               	addwfc	_temph+1,f
  4128  0027                     i1l382:	
  4129                           ;main.c: 170:         }
  4130                           
  4131                           
  4132                           ;main.c: 171:         if(temph>60000)
  4133  0027  30EA               	movlw	234
  4134  0028  0230               	subwf	_temph+1,w
  4135  0029  3061               	movlw	97
  4136  002A  1903               	skipnz
  4137  002B  022F               	subwf	_temph,w
  4138  002C  1C03               	skipc
  4139  002D  282F               	goto	u118_21
  4140  002E  2830               	goto	u118_20
  4141  002F                     u118_21:
  4142  002F  285B               	goto	i1l2205
  4143  0030                     u118_20:
  4144  0030                     i1l2189:
  4145                           
  4146                           ;main.c: 172:             {;main.c: 173:                 temph=0;
  4147  0030  01AF               	clrf	_temph
  4148  0031  01B0               	clrf	_temph+1
  4149  0032                     i1l2191:
  4150                           
  4151                           ;main.c: 174:                 if(m<6)
  4152  0032  3006               	movlw	6
  4153  0033  027B               	subwf	_m,w
  4154  0034  1803               	skipnc
  4155  0035  2837               	goto	u119_21
  4156  0036  2838               	goto	u119_20
  4157  0037                     u119_21:
  4158  0037  283D               	goto	i1l2195
  4159  0038                     u119_20:
  4160  0038                     i1l2193:
  4161                           
  4162                           ;main.c: 175:                     {;main.c: 176:                         m++;
  4163  0038  3001               	movlw	1
  4164  0039  00F8               	movwf	??_ISR
  4165  003A  0878               	movf	??_ISR,w
  4166  003B  07FB               	addwf	_m,f
  4167                           
  4168                           ;main.c: 177:                     }
  4169  003C  285B               	goto	i1l2205
  4170  003D                     i1l2195:
  4171                           
  4172                           ;main.c: 179:                 {;main.c: 180:                     m=0;
  4173  003D  01FB               	clrf	_m
  4174  003E                     i1l2197:
  4175                           
  4176                           ;main.c: 181:                     tempH++;
  4177  003E  3001               	movlw	1
  4178  003F  07FC               	addwf	_tempH,f
  4179  0040  3000               	movlw	0
  4180  0041  3DFD               	addwfc	_tempH+1,f
  4181  0042                     i1l2199:
  4182                           
  4183                           ;main.c: 182:                     tempHD=tempH;
  4184  0042  087D               	movf	_tempH+1,w
  4185  0043  00AE               	movwf	_tempHD+1
  4186  0044  087C               	movf	_tempH,w
  4187  0045  00AD               	movwf	_tempHD
  4188  0046                     i1l2201:
  4189                           
  4190                           ;main.c: 183:                     eeprom_write(0x11,(tempH>>8)&0x00FF);
  4191  0046  087D               	movf	_tempH+1,w
  4192  0047  00F8               	movwf	??_ISR
  4193  0048  0878               	movf	??_ISR,w
  4194  0049  00F0               	movwf	eeprom_write@value
  4195  004A  3011               	movlw	17
  4196  004B  3184  2486  3180   	fcall	_eeprom_write
  4197  004E                     i1l2203:
  4198                           
  4199                           ;main.c: 184:                     eeprom_write(0x10,tempH&0x00FF);
  4200  004E  087C               	movf	_tempH,w
  4201  004F  00F8               	movwf	??_ISR
  4202  0050  0878               	movf	??_ISR,w
  4203  0051  00F0               	movwf	eeprom_write@value
  4204  0052  3010               	movlw	16
  4205  0053  3184  2486  3180   	fcall	_eeprom_write
  4206  0056                     i1l388:	
  4207                           ;main.c: 185:                     while(WR)
  4208                           
  4209                           
  4210                           ;main.c: 185:                     while(WR)
  4211  0056  0023               	movlb	3	; select bank3
  4212  0057  1895               	btfsc	21,1	;volsfr
  4213  0058  285A               	goto	u120_21
  4214  0059  285B               	goto	u120_20
  4215  005A                     u120_21:
  4216  005A  2856               	goto	i1l388
  4217  005B                     u120_20:
  4218  005B                     i1l2205:
  4219                           
  4220                           ;main.c: 190:     if(TimeFLAG)
  4221  005B  0879               	movf	_TimeFLAG,w
  4222  005C  1903               	btfsc	3,2
  4223  005D  285F               	goto	u121_21
  4224  005E  2860               	goto	u121_20
  4225  005F                     u121_21:
  4226  005F  28A9               	goto	i1l2227
  4227  0060                     u121_20:
  4228  0060                     i1l2207:
  4229                           
  4230                           ;main.c: 191:         {;main.c: 192:             temp1++;
  4231  0060  3001               	movlw	1
  4232  0061  0020               	movlb	0	; select bank0
  4233  0062  07B7               	addwf	_temp1,f
  4234  0063  3000               	movlw	0
  4235  0064  3DB8               	addwfc	_temp1+1,f
  4236                           
  4237                           ;main.c: 193:             if(temp1>60000)
  4238  0065  30EA               	movlw	234
  4239  0066  0238               	subwf	_temp1+1,w
  4240  0067  3061               	movlw	97
  4241  0068  1903               	skipnz
  4242  0069  0237               	subwf	_temp1,w
  4243  006A  1C03               	skipc
  4244  006B  286D               	goto	u122_21
  4245  006C  286E               	goto	u122_20
  4246  006D                     u122_21:
  4247  006D  2870               	goto	i1l2211
  4248  006E                     u122_20:
  4249  006E                     i1l2209:
  4250                           
  4251                           ;main.c: 194:             {;main.c: 195:                 temp1=0;
  4252  006E  01B7               	clrf	_temp1
  4253  006F  01B8               	clrf	_temp1+1
  4254  0070                     i1l2211:
  4255                           
  4256                           ;main.c: 197:             tempM = temp1/6000;
  4257  0070  3070               	movlw	112
  4258  0071  00F0               	movwf	i1___lwdiv@divisor
  4259  0072  3017               	movlw	23
  4260  0073  00F1               	movwf	i1___lwdiv@divisor+1
  4261  0074  0838               	movf	_temp1+1,w
  4262  0075  00F3               	movwf	i1___lwdiv@dividend+1
  4263  0076  0837               	movf	_temp1,w
  4264  0077  00F2               	movwf	i1___lwdiv@dividend
  4265  0078  3183  23B7  3180   	fcall	i1___lwdiv
  4266  007B  0871               	movf	?i1___lwdiv+1,w
  4267  007C  0020               	movlb	0	; select bank0
  4268  007D  00B2               	movwf	_tempM+1
  4269  007E  0870               	movf	?i1___lwdiv,w
  4270  007F  00B1               	movwf	_tempM
  4271  0080                     i1l2213:
  4272                           
  4273                           ;main.c: 198:             if(countM>=1&&tempM0!=tempM)
  4274  0080  0829               	movf	_countM,w
  4275  0081  042A               	iorwf	_countM+1,w
  4276  0082  1903               	btfsc	3,2
  4277  0083  2885               	goto	u123_21
  4278  0084  2886               	goto	u123_20
  4279  0085                     u123_21:
  4280  0085  2896               	goto	i1l2219
  4281  0086                     u123_20:
  4282  0086                     i1l2215:
  4283  0086  0832               	movf	_tempM+1,w
  4284  0087  0634               	xorwf	_tempM0+1,w
  4285  0088  1D03               	skipz
  4286  0089  288C               	goto	u124_25
  4287  008A  0831               	movf	_tempM,w
  4288  008B  0633               	xorwf	_tempM0,w
  4289  008C                     u124_25:
  4290  008C  1903               	skipnz
  4291  008D  288F               	goto	u124_21
  4292  008E  2890               	goto	u124_20
  4293  008F                     u124_21:
  4294  008F  2896               	goto	i1l2219
  4295  0090                     u124_20:
  4296  0090                     i1l2217:
  4297                           
  4298                           ;main.c: 199:             {;main.c: 200:                 countM=countM-1;
  4299  0090  0829               	movf	_countM,w
  4300  0091  3EFF               	addlw	255
  4301  0092  00A9               	movwf	_countM
  4302  0093  30FF               	movlw	255
  4303  0094  3D2A               	addwfc	_countM+1,w
  4304  0095  00AA               	movwf	_countM+1
  4305  0096                     i1l2219:
  4306                           
  4307                           ;main.c: 202:             tempM0=tempM;
  4308  0096  0832               	movf	_tempM+1,w
  4309  0097  00B4               	movwf	_tempM0+1
  4310  0098  0831               	movf	_tempM,w
  4311  0099  00B3               	movwf	_tempM0
  4312  009A                     i1l2221:
  4313                           
  4314                           ;main.c: 204:             if(countM<1)
  4315  009A  0829               	movf	_countM,w
  4316  009B  042A               	iorwf	_countM+1,w
  4317  009C  1D03               	btfss	3,2
  4318  009D  289F               	goto	u125_21
  4319  009E  28A0               	goto	u125_20
  4320  009F                     u125_21:
  4321  009F  28A9               	goto	i1l2227
  4322  00A0                     u125_20:
  4323  00A0                     i1l2223:
  4324                           
  4325                           ;main.c: 205:             {;main.c: 206:             countM=0;
  4326  00A0  01A9               	clrf	_countM
  4327  00A1  01AA               	clrf	_countM+1
  4328                           
  4329                           ;main.c: 207:             temp1=0;
  4330  00A2  01B7               	clrf	_temp1
  4331  00A3  01B8               	clrf	_temp1+1
  4332  00A4                     i1l2225:
  4333                           
  4334                           ;main.c: 208:             PORTFbits.RF1=1;
  4335  00A4  0025               	movlb	5	; select bank5
  4336  00A5  148C               	bsf	12,1	;volatile
  4337                           
  4338                           ;main.c: 209:             TimeFLAG=0;
  4339  00A6  01F9               	clrf	_TimeFLAG
  4340                           
  4341                           ;main.c: 210:             WFLAG=0;
  4342  00A7  0020               	movlb	0	; select bank0
  4343  00A8  01CC               	clrf	_WFLAG
  4344  00A9                     i1l2227:
  4345                           
  4346                           ;main.c: 214:     if (TMR1IF==1)
  4347  00A9  0020               	movlb	0	; select bank0
  4348  00AA  1C11               	btfss	17,0	;volatile
  4349  00AB  28AD               	goto	u126_21
  4350  00AC  28AE               	goto	u126_20
  4351  00AD                     u126_21:
  4352  00AD  2923               	goto	i1l399
  4353  00AE                     u126_20:
  4354  00AE                     i1l2229:
  4355                           
  4356                           ;main.c: 215:     {;main.c: 216:     TMR1H=0x0B;
  4357  00AE  300B               	movlw	11
  4358  00AF  0097               	movwf	23	;volatile
  4359                           
  4360                           ;main.c: 217:     TMR1L=0xDC;
  4361  00B0  30DC               	movlw	220
  4362  00B1  0096               	movwf	22	;volatile
  4363  00B2                     i1l2231:
  4364                           
  4365                           ;main.c: 218:     TMR1IF=0;
  4366  00B2  1011               	bcf	17,0	;volatile
  4367                           
  4368                           ;main.c: 219:     switch (Operation_Type)
  4369  00B3  2910               	goto	i1l2267
  4370  00B4                     i1l397:	
  4371                           ;main.c: 220:         {;main.c: 221:       case 1:
  4372                           
  4373                           
  4374                           ;main.c: 222:             PORTFbits.RF3=1;
  4375  00B4  0025               	movlb	5	; select bank5
  4376  00B5  158C               	bsf	12,3	;volatile
  4377                           
  4378                           ;main.c: 223:             PORTFbits.RF4=1;
  4379  00B6  160C               	bsf	12,4	;volatile
  4380  00B7                     i1l2233:
  4381                           
  4382                           ;main.c: 224:             if (++Time_Count != 6) return;
  4383  00B7  3001               	movlw	1
  4384  00B8  0020               	movlb	0	; select bank0
  4385  00B9  07AB               	addwf	_Time_Count,f
  4386  00BA  3000               	movlw	0
  4387  00BB  3DAC               	addwfc	_Time_Count+1,f
  4388  00BC  3006               	movlw	6
  4389  00BD  062B               	xorwf	_Time_Count,w
  4390  00BE  042C               	iorwf	_Time_Count+1,w
  4391  00BF  1903               	btfsc	3,2
  4392  00C0  28C2               	goto	u127_21
  4393  00C1  28C3               	goto	u127_20
  4394  00C2                     u127_21:
  4395  00C2  28C4               	goto	i1l2237
  4396  00C3                     u127_20:
  4397  00C3  2923               	goto	i1l399
  4398  00C4                     i1l2237:
  4399                           
  4400                           ;main.c: 225:             Time_Count = 0;
  4401  00C4  01AB               	clrf	_Time_Count
  4402  00C5  01AC               	clrf	_Time_Count+1
  4403  00C6                     i1l2239:
  4404                           
  4405                           ;main.c: 227:             Operation_Type = 2;
  4406  00C6  3002               	movlw	2
  4407  00C7  00C8               	movwf	_Operation_Type
  4408  00C8  3000               	movlw	0
  4409  00C9  00C9               	movwf	_Operation_Type+1
  4410                           
  4411                           ;main.c: 228:             break;
  4412  00CA  2923               	goto	i1l399
  4413  00CB                     i1l401:	
  4414                           ;main.c: 229:       case 2:
  4415                           
  4416                           
  4417                           ;main.c: 230:             PORTFbits.RF3=1;
  4418  00CB  0025               	movlb	5	; select bank5
  4419  00CC  158C               	bsf	12,3	;volatile
  4420                           
  4421                           ;main.c: 231:             PORTFbits.RF4=0;
  4422  00CD  120C               	bcf	12,4	;volatile
  4423  00CE                     i1l2241:
  4424                           
  4425                           ;main.c: 232:             if (++Time_Count != 48) return;
  4426  00CE  3001               	movlw	1
  4427  00CF  0020               	movlb	0	; select bank0
  4428  00D0  07AB               	addwf	_Time_Count,f
  4429  00D1  3000               	movlw	0
  4430  00D2  3DAC               	addwfc	_Time_Count+1,f
  4431  00D3  3030               	movlw	48
  4432  00D4  062B               	xorwf	_Time_Count,w
  4433  00D5  042C               	iorwf	_Time_Count+1,w
  4434  00D6  1903               	btfsc	3,2
  4435  00D7  28D9               	goto	u128_21
  4436  00D8  28DA               	goto	u128_20
  4437  00D9                     u128_21:
  4438  00D9  28DB               	goto	i1l2245
  4439  00DA                     u128_20:
  4440  00DA  2923               	goto	i1l399
  4441  00DB                     i1l2245:
  4442                           
  4443                           ;main.c: 233:             Time_Count = 0;
  4444  00DB  01AB               	clrf	_Time_Count
  4445  00DC  01AC               	clrf	_Time_Count+1
  4446  00DD                     i1l2247:
  4447                           
  4448                           ;main.c: 234:             Operation_Type = 3;
  4449  00DD  3003               	movlw	3
  4450  00DE  00C8               	movwf	_Operation_Type
  4451  00DF  3000               	movlw	0
  4452  00E0  00C9               	movwf	_Operation_Type+1
  4453                           
  4454                           ;main.c: 235:             break;
  4455  00E1  2923               	goto	i1l399
  4456  00E2                     i1l403:	
  4457                           ;main.c: 236:       case 3:
  4458                           
  4459                           
  4460                           ;main.c: 237:             PORTFbits.RF3=1;
  4461  00E2  0025               	movlb	5	; select bank5
  4462  00E3  158C               	bsf	12,3	;volatile
  4463                           
  4464                           ;main.c: 238:             PORTFbits.RF4=1;
  4465  00E4  160C               	bsf	12,4	;volatile
  4466  00E5                     i1l2249:
  4467                           
  4468                           ;main.c: 239:             if (++Time_Count != 6) return;
  4469  00E5  3001               	movlw	1
  4470  00E6  0020               	movlb	0	; select bank0
  4471  00E7  07AB               	addwf	_Time_Count,f
  4472  00E8  3000               	movlw	0
  4473  00E9  3DAC               	addwfc	_Time_Count+1,f
  4474  00EA  3006               	movlw	6
  4475  00EB  062B               	xorwf	_Time_Count,w
  4476  00EC  042C               	iorwf	_Time_Count+1,w
  4477  00ED  1903               	btfsc	3,2
  4478  00EE  28F0               	goto	u129_21
  4479  00EF  28F1               	goto	u129_20
  4480  00F0                     u129_21:
  4481  00F0  28F2               	goto	i1l2253
  4482  00F1                     u129_20:
  4483  00F1  2923               	goto	i1l399
  4484  00F2                     i1l2253:
  4485                           
  4486                           ;main.c: 240:             Time_Count = 0;
  4487  00F2  01AB               	clrf	_Time_Count
  4488  00F3  01AC               	clrf	_Time_Count+1
  4489  00F4                     i1l2255:
  4490                           
  4491                           ;main.c: 242:             Operation_Type = 4;
  4492  00F4  3004               	movlw	4
  4493  00F5  00C8               	movwf	_Operation_Type
  4494  00F6  3000               	movlw	0
  4495  00F7  00C9               	movwf	_Operation_Type+1
  4496                           
  4497                           ;main.c: 243:             break;
  4498  00F8  2923               	goto	i1l399
  4499  00F9                     i1l405:	
  4500                           ;main.c: 244:       case 4:
  4501                           
  4502                           
  4503                           ;main.c: 245:             PORTFbits.RF3=0;
  4504  00F9  0025               	movlb	5	; select bank5
  4505  00FA  118C               	bcf	12,3	;volatile
  4506                           
  4507                           ;main.c: 246:             PORTFbits.RF4=1;
  4508  00FB  160C               	bsf	12,4	;volatile
  4509  00FC                     i1l2257:
  4510                           
  4511                           ;main.c: 247:             if (++Time_Count != 48) return;
  4512  00FC  3001               	movlw	1
  4513  00FD  0020               	movlb	0	; select bank0
  4514  00FE  07AB               	addwf	_Time_Count,f
  4515  00FF  3000               	movlw	0
  4516  0100  3DAC               	addwfc	_Time_Count+1,f
  4517  0101  3030               	movlw	48
  4518  0102  062B               	xorwf	_Time_Count,w
  4519  0103  042C               	iorwf	_Time_Count+1,w
  4520  0104  1903               	btfsc	3,2
  4521  0105  2907               	goto	u130_21
  4522  0106  2908               	goto	u130_20
  4523  0107                     u130_21:
  4524  0107  2909               	goto	i1l2261
  4525  0108                     u130_20:
  4526  0108  2923               	goto	i1l399
  4527  0109                     i1l2261:
  4528                           
  4529                           ;main.c: 248:             Time_Count = 0;
  4530  0109  01AB               	clrf	_Time_Count
  4531  010A  01AC               	clrf	_Time_Count+1
  4532  010B                     i1l2263:
  4533                           
  4534                           ;main.c: 249:             Operation_Type = 1;
  4535  010B  3001               	movlw	1
  4536  010C  00C8               	movwf	_Operation_Type
  4537  010D  3000               	movlw	0
  4538  010E  00C9               	movwf	_Operation_Type+1
  4539                           
  4540                           ;main.c: 250:             break;
  4541  010F  2923               	goto	i1l399
  4542  0110                     i1l2267:
  4543                           
  4544                           ; Switch on 2 bytes has been partitioned into a top level switch of size 1, and 1 sub-sw
      +                          itches
  4545                           ; Switch size 1, requested type "simple"
  4546                           ; Number of cases is 1, Range of values is 0 to 0
  4547                           ; switch strategies available:
  4548                           ; Name         Instructions Cycles
  4549                           ; simple_byte            4     3 (average)
  4550                           ; direct_byte            8     6 (fixed)
  4551                           ; jumptable            260     6 (fixed)
  4552                           ;	Chosen strategy is simple_byte
  4553  0110  0849               	movf	_Operation_Type+1,w
  4554  0111  3A00               	xorlw	0	; case 0
  4555  0112  1903               	skipnz
  4556  0113  2915               	goto	i1l2679
  4557  0114  2923               	goto	i1l399
  4558  0115                     i1l2679:
  4559                           
  4560                           ; Switch size 1, requested type "simple"
  4561                           ; Number of cases is 4, Range of values is 1 to 4
  4562                           ; switch strategies available:
  4563                           ; Name         Instructions Cycles
  4564                           ; simple_byte           13     7 (average)
  4565                           ; direct_byte           17     9 (fixed)
  4566                           ; jumptable            263     9 (fixed)
  4567                           ;	Chosen strategy is simple_byte
  4568  0115  0848               	movf	_Operation_Type,w
  4569  0116  3A01               	xorlw	1	; case 1
  4570  0117  1903               	skipnz
  4571  0118  28B4               	goto	i1l397
  4572  0119  3A03               	xorlw	3	; case 2
  4573  011A  1903               	skipnz
  4574  011B  28CB               	goto	i1l401
  4575  011C  3A01               	xorlw	1	; case 3
  4576  011D  1903               	skipnz
  4577  011E  28E2               	goto	i1l403
  4578  011F  3A07               	xorlw	7	; case 4
  4579  0120  1903               	skipnz
  4580  0121  28F9               	goto	i1l405
  4581  0122  2923               	goto	i1l399
  4582  0123                     i1l399:
  4583  0123  107E               	bcf	int$flags,0	;clear compiler interrupt flag (level 1)
  4584  0124  0009               	retfie
  4585  0125                     __end_of_ISR:
  4586                           
  4587                           	psect	text13
  4588  03B7                     __ptext13:	
  4589 ;; *************** function i1___lwdiv *****************
  4590 ;; Defined at:
  4591 ;;		line 5 in file "C:\Program Files\Microchip\xc8\v2.20\pic\sources\c99\common\lwdiv.c"
  4592 ;; Parameters:    Size  Location     Type
  4593 ;;  divisor         2    0[COMMON] unsigned int 
  4594 ;;  dividend        2    2[COMMON] unsigned int 
  4595 ;; Auto vars:     Size  Location     Type
  4596 ;;  quotient        2    5[COMMON] unsigned int 
  4597 ;;  counter         1    7[COMMON] unsigned char 
  4598 ;; Return value:  Size  Location     Type
  4599 ;;                  2    0[COMMON] unsigned int 
  4600 ;; Registers used:
  4601 ;;		wreg, status,2, status,0
  4602 ;; Tracked objects:
  4603 ;;		On entry : 0/0
  4604 ;;		On exit  : 0/0
  4605 ;;		Unchanged: 0/0
  4606 ;; Data sizes:     COMMON   BANK0   BANK1   BANK2   BANK3   BANK4   BANK5   BANK6
  4607 ;;      Params:         4       0       0       0       0       0       0       0
  4608 ;;      Locals:         3       0       0       0       0       0       0       0
  4609 ;;      Temps:          1       0       0       0       0       0       0       0
  4610 ;;      Totals:         8       0       0       0       0       0       0       0
  4611 ;;Total ram usage:        8 bytes
  4612 ;; Hardware stack levels used:    1
  4613 ;; This function calls:
  4614 ;;		Nothing
  4615 ;; This function is called by:
  4616 ;;		_ISR
  4617 ;; This function uses a non-reentrant model
  4618 ;;
  4619                           
  4620                           
  4621                           ;psect for function i1___lwdiv
  4622  03B7                     i1___lwdiv:
  4623  03B7                     i1l2033:	
  4624                           ;incstack = 0
  4625                           ; Regs used in i1___lwdiv: [wreg+status,2+status,0]
  4626                           
  4627  03B7  01F5               	clrf	i1___lwdiv@quotient
  4628  03B8  01F6               	clrf	i1___lwdiv@quotient+1
  4629  03B9                     i1l2035:
  4630  03B9  0870               	movf	i1___lwdiv@divisor,w
  4631  03BA  0471               	iorwf	i1___lwdiv@divisor+1,w
  4632  03BB  1903               	btfsc	3,2
  4633  03BC  2BBE               	goto	u100_21
  4634  03BD  2BBF               	goto	u100_20
  4635  03BE                     u100_21:
  4636  03BE  2BEE               	goto	i1l2055
  4637  03BF                     u100_20:
  4638  03BF                     i1l2037:
  4639  03BF  01F7               	clrf	i1___lwdiv@counter
  4640  03C0  0AF7               	incf	i1___lwdiv@counter,f
  4641  03C1  2BCB               	goto	i1l2043
  4642  03C2                     i1l2039:
  4643  03C2  3001               	movlw	1
  4644  03C3                     u101_25:
  4645  03C3  35F0               	lslf	i1___lwdiv@divisor,f
  4646  03C4  0DF1               	rlf	i1___lwdiv@divisor+1,f
  4647  03C5  0B89               	decfsz	9,f
  4648  03C6  2BC3               	goto	u101_25
  4649  03C7                     i1l2041:
  4650  03C7  3001               	movlw	1
  4651  03C8  00F4               	movwf	??i1___lwdiv
  4652  03C9  0874               	movf	??i1___lwdiv,w
  4653  03CA  07F7               	addwf	i1___lwdiv@counter,f
  4654  03CB                     i1l2043:
  4655  03CB  1FF1               	btfss	i1___lwdiv@divisor+1,7
  4656  03CC  2BCE               	goto	u102_21
  4657  03CD  2BCF               	goto	u102_20
  4658  03CE                     u102_21:
  4659  03CE  2BC2               	goto	i1l2039
  4660  03CF                     u102_20:
  4661  03CF                     i1l2045:
  4662  03CF  3001               	movlw	1
  4663  03D0                     u103_25:
  4664  03D0  35F5               	lslf	i1___lwdiv@quotient,f
  4665  03D1  0DF6               	rlf	i1___lwdiv@quotient+1,f
  4666  03D2  0B89               	decfsz	9,f
  4667  03D3  2BD0               	goto	u103_25
  4668  03D4  0871               	movf	i1___lwdiv@divisor+1,w
  4669  03D5  0273               	subwf	i1___lwdiv@dividend+1,w
  4670  03D6  1D03               	skipz
  4671  03D7  2BDA               	goto	u104_25
  4672  03D8  0870               	movf	i1___lwdiv@divisor,w
  4673  03D9  0272               	subwf	i1___lwdiv@dividend,w
  4674  03DA                     u104_25:
  4675  03DA  1C03               	skipc
  4676  03DB  2BDD               	goto	u104_21
  4677  03DC  2BDE               	goto	u104_20
  4678  03DD                     u104_21:
  4679  03DD  2BE3               	goto	i1l2051
  4680  03DE                     u104_20:
  4681  03DE                     i1l2047:
  4682  03DE  0870               	movf	i1___lwdiv@divisor,w
  4683  03DF  02F2               	subwf	i1___lwdiv@dividend,f
  4684  03E0  0871               	movf	i1___lwdiv@divisor+1,w
  4685  03E1  3BF3               	subwfb	i1___lwdiv@dividend+1,f
  4686  03E2                     i1l2049:
  4687  03E2  1475               	bsf	i1___lwdiv@quotient,0
  4688  03E3                     i1l2051:
  4689  03E3  3001               	movlw	1
  4690  03E4                     u105_25:
  4691  03E4  36F1               	lsrf	i1___lwdiv@divisor+1,f
  4692  03E5  0CF0               	rrf	i1___lwdiv@divisor,f
  4693  03E6  0B89               	decfsz	9,f
  4694  03E7  2BE4               	goto	u105_25
  4695  03E8                     i1l2053:
  4696  03E8  3001               	movlw	1
  4697  03E9  02F7               	subwf	i1___lwdiv@counter,f
  4698  03EA  1D03               	btfss	3,2
  4699  03EB  2BED               	goto	u106_21
  4700  03EC  2BEE               	goto	u106_20
  4701  03ED                     u106_21:
  4702  03ED  2BCF               	goto	i1l2045
  4703  03EE                     u106_20:
  4704  03EE                     i1l2055:
  4705  03EE  0876               	movf	i1___lwdiv@quotient+1,w
  4706  03EF  00F1               	movwf	?i1___lwdiv+1
  4707  03F0  0875               	movf	i1___lwdiv@quotient,w
  4708  03F1  00F0               	movwf	?i1___lwdiv
  4709  03F2                     i1l909:
  4710  03F2  0008               	return
  4711  03F3                     __end_ofi1___lwdiv:
  4712                           
  4713                           	psect	text14
  4714  0486                     __ptext14:	
  4715 ;; *************** function _eeprom_write *****************
  4716 ;; Defined at:
  4717 ;;		line 6 in file "C:\Program Files\Microchip\xc8\v2.20\pic\sources\c99\pic\__eewrite.c"
  4718 ;; Parameters:    Size  Location     Type
  4719 ;;  addr            1    wreg     unsigned char 
  4720 ;;  value           1    0[COMMON] unsigned char 
  4721 ;; Auto vars:     Size  Location     Type
  4722 ;;  addr            1    3[COMMON] unsigned char 
  4723 ;; Return value:  Size  Location     Type
  4724 ;;                  1    wreg      void 
  4725 ;; Registers used:
  4726 ;;		wreg, status,2, status,0
  4727 ;; Tracked objects:
  4728 ;;		On entry : 0/0
  4729 ;;		On exit  : 0/0
  4730 ;;		Unchanged: 0/0
  4731 ;; Data sizes:     COMMON   BANK0   BANK1   BANK2   BANK3   BANK4   BANK5   BANK6
  4732 ;;      Params:         1       0       0       0       0       0       0       0
  4733 ;;      Locals:         1       0       0       0       0       0       0       0
  4734 ;;      Temps:          2       0       0       0       0       0       0       0
  4735 ;;      Totals:         4       0       0       0       0       0       0       0
  4736 ;;Total ram usage:        4 bytes
  4737 ;; Hardware stack levels used:    1
  4738 ;; This function calls:
  4739 ;;		Nothing
  4740 ;; This function is called by:
  4741 ;;		_ISR
  4742 ;; This function uses a non-reentrant model
  4743 ;;
  4744                           
  4745                           
  4746                           ;psect for function _eeprom_write
  4747  0486                     _eeprom_write:
  4748                           
  4749                           ;incstack = 0
  4750                           ; Regs used in _eeprom_write: [wreg+status,2+status,0]
  4751                           ;eeprom_write@addr stored from wreg
  4752  0486  00F3               	movwf	eeprom_write@addr
  4753  0487                     i1l618:	
  4754                           ;C:\Program Files\Microchip\xc8\v2.20\pic\sources\c99\pic\__eewrite.c: 6: eeprom_write(u
      +                          nsigned char addr, unsigned char value);C:\Program Files\Microchip\xc8\v2.20\pic\sources
      +                          \c99\pic\__eewrite.c: 7: {;C:\Program Files\Microchip\xc8\v2.20\pic\sources\c99\pic\__ee
      +                          write.c: 8:  do{ while (EECON1bits.WR) { continue; } EEADR = (addr); EEDATA = (value); E
      +                          ECON1 &= 0x3F; STATUSbits.CARRY = 0; if (INTCONbits.GIE) { STATUSbits.CARRY = 1; } INTCO
      +                          Nbits.GIE = 0; EECON1bits.WREN = 1; EECON2 = 0x55; EECON2 = 0xAA; EECON1bits.WR = 1; EEC
      +                          ON1bits.WREN = 0; if (STATUSbits.CARRY) { INTCONbits.GIE = 1; } } while (0);
  4755                           
  4756  0487                     i1l619:
  4757  0487  0023               	movlb	3	; select bank3
  4758  0488  1895               	btfsc	21,1	;volsfr
  4759  0489  2C8B               	goto	u83_21
  4760  048A  2C8C               	goto	u83_20
  4761  048B                     u83_21:
  4762  048B  2C87               	goto	i1l619
  4763  048C                     u83_20:
  4764  048C                     i1l1961:
  4765  048C  0873               	movf	eeprom_write@addr,w
  4766  048D  00F1               	movwf	??_eeprom_write
  4767  048E  01F2               	clrf	??_eeprom_write+1
  4768  048F  0871               	movf	??_eeprom_write,w
  4769  0490  0091               	movwf	17	;volatile
  4770  0491  0872               	movf	??_eeprom_write+1,w
  4771  0492  0092               	movwf	18	;volatile
  4772  0493  0870               	movf	eeprom_write@value,w
  4773  0494  0093               	movwf	19	;volatile
  4774  0495                     i1l1963:
  4775  0495  303F               	movlw	63
  4776  0496  00F1               	movwf	??_eeprom_write
  4777  0497  0871               	movf	??_eeprom_write,w
  4778  0498  0595               	andwf	21,f	;volsfr
  4779  0499                     i1l1965:
  4780  0499  0020               	movlb	0	; select bank0
  4781  049A  1003               	bcf	3,0	;volatile
  4782  049B                     i1l1967:
  4783  049B  1F8B               	btfss	11,7	;volatile
  4784  049C  2C9E               	goto	u84_21
  4785  049D  2C9F               	goto	u84_20
  4786  049E                     u84_21:
  4787  049E  2CA0               	goto	i1l622
  4788  049F                     u84_20:
  4789  049F                     i1l1969:
  4790  049F  1403               	bsf	3,0	;volatile
  4791  04A0                     i1l622:
  4792  04A0  138B               	bcf	11,7	;volatile
  4793  04A1  0023               	movlb	3	; select bank3
  4794  04A2  1515               	bsf	21,2	;volsfr
  4795  04A3                     i1l1971:
  4796  04A3  3055               	movlw	85
  4797  04A4  0096               	movwf	22	;volsfr
  4798  04A5  30AA               	movlw	170
  4799  04A6  0096               	movwf	22	;volsfr
  4800  04A7                     i1l1973:
  4801  04A7  1495               	bsf	21,1	;volsfr
  4802  04A8                     i1l1975:
  4803  04A8  1115               	bcf	21,2	;volsfr
  4804  04A9                     i1l1977:
  4805  04A9  0020               	movlb	0	; select bank0
  4806  04AA  1C03               	btfss	3,0	;volatile
  4807  04AB  2CAD               	goto	u85_21
  4808  04AC  2CAE               	goto	u85_20
  4809  04AD                     u85_21:
  4810  04AD  2CAF               	goto	i1l625
  4811  04AE                     u85_20:
  4812  04AE                     i1l1979:
  4813  04AE  178B               	bsf	11,7	;volatile
  4814  04AF                     i1l625:
  4815  04AF  0008               	return
  4816  04B0                     __end_of_eeprom_write:
  4817  007E                     btemp	set	126	;btemp
  4818  007E                     int$flags	set	126
  4819  007E                     wtemp0	set	126
  4820                           
  4821                           	psect	config
  4822                           
  4823                           ;Config register CONFIG1 @ 0x8007
  4824                           ;	Oscillator Selection
  4825                           ;	FOSC = INTOSC, INTOSC oscillator: I/O function on CLKIN pin
  4826                           ;	Watchdog Timer Enable
  4827                           ;	WDTE = OFF, WDT disabled
  4828                           ;	Power-up Timer Enable
  4829                           ;	PWRTE = OFF, PWRT disabled
  4830                           ;	MCLR Pin Function Select
  4831                           ;	MCLRE = ON, MCLR/VPP pin function is MCLR
  4832                           ;	Flash Program Memory Code Protection
  4833                           ;	CP = OFF, Program memory code protection is disabled
  4834                           ;	Data Memory Code Protection
  4835                           ;	CPD = OFF, Data memory code protection is disabled
  4836                           ;	Brown-out Reset Enable
  4837                           ;	BOREN = ON, Brown-out Reset enabled
  4838                           ;	Clock Out Enable
  4839                           ;	CLKOUTEN = OFF, CLKOUT function is disabled. I/O or oscillator function on the CLKOUT 
      +                          pin
  4840                           ;	Internal/External Switchover
  4841                           ;	IESO = ON, Internal/External Switchover mode is enabled
  4842                           ;	Fail-Safe Clock Monitor Enable
  4843                           ;	FCMEN = ON, Fail-Safe Clock Monitor is enabled
  4844  8007                     	org	32775
  4845  8007  3FE4               	dw	16356
  4846                           
  4847                           ;Config register CONFIG2 @ 0x8008
  4848                           ;	Flash Memory Self-Write Protection
  4849                           ;	WRT = OFF, Write protection off
  4850                           ;	Voltage Regulator Capacitor Enable
  4851                           ;	VCAPEN = OFF, VCAP pin functionality is disabled
  4852                           ;	PLL Enable
  4853                           ;	PLLEN = OFF, 4x PLL disabled
  4854                           ;	Stack Overflow/Underflow Reset Enable
  4855                           ;	STVREN = ON, Stack Overflow or Underflow will cause a Reset
  4856                           ;	Brown-out Reset Voltage Selection
  4857                           ;	BORV = LO, Brown-out Reset Voltage (Vbor), low trip point selected.
  4858                           ;	Low-Voltage Programming Enable
  4859                           ;	LVP = ON, Low-voltage programming enabled
  4860  8008                     	org	32776
  4861  8008  3EFF               	dw	16127

Data Sizes:
    Strings     0
    Constant    0
    Data        69
    BSS         51
    Persistent  32
    Stack       0

Auto Spaces:
    Space          Size  Autos    Used
    COMMON           14      9      14
    BANK0            80     18      72
    BANK1            80      0      61
    BANK2            80      0       0
    BANK3            80      0       0
    BANK4            80      0       0
    BANK5            80      0       0
    BANK6            16      0       0

Pointer List with Targets:

    p	PTR unsigned char  size(1) Largest target is 0
		 -> NULL(NULL[0]), 

    TM1721_Write_StringS@dat	PTR unsigned char  size(1) Largest target is 9
		 -> dat(BANK0[9]), 


Critical Paths under _main in COMMON

    None.

Critical Paths under _ISR in COMMON

    _ISR->i1___lwdiv

Critical Paths under _main in BANK0

    _main->___lwmod
    ___lwmod->___lwdiv
    _TM1721_Write_StringS->_TM1721_Write_Byte
    _TM1721_DisplayClear->_TM1721_Write_Byte
    _TM1721_Write_Byte->_TM1721_Delay_ms

Critical Paths under _ISR in BANK0

    None.

Critical Paths under _main in BANK1

    None.

Critical Paths under _ISR in BANK1

    None.

Critical Paths under _main in BANK2

    None.

Critical Paths under _ISR in BANK2

    None.

Critical Paths under _main in BANK3

    None.

Critical Paths under _ISR in BANK3

    None.

Critical Paths under _main in BANK4

    None.

Critical Paths under _ISR in BANK4

    None.

Critical Paths under _main in BANK5

    None.

Critical Paths under _ISR in BANK5

    None.

Critical Paths under _main in BANK6

    None.

Critical Paths under _ISR in BANK6

    None.

Call Graph Tables:

 ---------------------------------------------------------------------------------
 (Depth) Function   	        Calls       Base Space   Used Autos Params    Refs
 ---------------------------------------------------------------------------------
 (0) _main                                                 4     4      0    4023
                                             14 BANK0      4     4      0
                              _DELAY
                               _Init
                _TM1721_DisplayClear
                  _TM1721_Write_Byte
               _TM1721_Write_StringS
                            ___lwdiv
                            ___lwmod
                        _eeprom_read
                        _timer0_Init
                        _timer1_Init
 ---------------------------------------------------------------------------------
 (1) _timer1_Init                                          0     0      0       0
 ---------------------------------------------------------------------------------
 (1) _timer0_Init                                          0     0      0       0
 ---------------------------------------------------------------------------------
 (1) _eeprom_read                                          4     4      0      22
                                              0 BANK0      4     4      0
 ---------------------------------------------------------------------------------
 (1) ___lwmod                                              6     2      4     919
                                              8 BANK0      6     2      4
                            ___lwdiv (ARG)
 ---------------------------------------------------------------------------------
 (1) ___lwdiv                                              8     4      4     870
                                              0 BANK0      8     4      4
 ---------------------------------------------------------------------------------
 (1) _TM1721_Write_StringS                                 1     1      0     696
                                              9 BANK0      1     1      0
                  _TM1721_Write_Byte
 ---------------------------------------------------------------------------------
 (1) _TM1721_DisplayClear                                  3     3      0     511
                                              9 BANK0      3     3      0
                  _TM1721_Write_Byte
 ---------------------------------------------------------------------------------
 (2) _TM1721_Write_Byte                                    3     3      0     465
                                              6 BANK0      3     3      0
                    _TM1721_Delay_ms
 ---------------------------------------------------------------------------------
 (3) _TM1721_Delay_ms                                      6     4      2     396
                                              0 BANK0      6     4      2
 ---------------------------------------------------------------------------------
 (1) _Init                                                 0     0      0       0
 ---------------------------------------------------------------------------------
 (1) _DELAY                                                6     4      2     472
                                              0 BANK0      6     4      2
 ---------------------------------------------------------------------------------
 Estimated maximum stack depth 3
 ---------------------------------------------------------------------------------
 (Depth) Function   	        Calls       Base Space   Used Autos Params    Refs
 ---------------------------------------------------------------------------------
 (4) _ISR                                                  1     1      0     410
                                              8 COMMON     1     1      0
                       _eeprom_write
                          i1___lwdiv
 ---------------------------------------------------------------------------------
 (5) i1___lwdiv                                            8     4      4     214
                                              0 COMMON     8     4      4
 ---------------------------------------------------------------------------------
 (5) _eeprom_write                                         4     3      1     196
                                              0 COMMON     4     3      1
 ---------------------------------------------------------------------------------
 Estimated maximum stack depth 5
 ---------------------------------------------------------------------------------

 Call Graph Graphs:

 _main (ROOT)
   _DELAY
   _Init
   _TM1721_DisplayClear
     _TM1721_Write_Byte
       _TM1721_Delay_ms
   _TM1721_Write_Byte
     _TM1721_Delay_ms
   _TM1721_Write_StringS
     _TM1721_Write_Byte
       _TM1721_Delay_ms
   ___lwdiv
   ___lwmod
     ___lwdiv (ARG)
   _eeprom_read
   _timer0_Init
   _timer1_Init

 _ISR (ROOT)
   _eeprom_write
   i1___lwdiv

 Address spaces:
Name               Size   Autos  Total    Cost      Usage
BIGRAM             1F0      0       0       0        0.0%
EEDATA             100      0       0       0        0.0%
NULL                 0      0       0       0        0.0%
CODE                 0      0       0       0        0.0%
BITCOMMON            E      0       0       1        0.0%
BITSFR0              0      0       0       1        0.0%
SFR0                 0      0       0       1        0.0%
COMMON               E      9       E       2      100.0%
BITSFR1              0      0       0       2        0.0%
SFR1                 0      0       0       2        0.0%
BITSFR2              0      0       0       3        0.0%
SFR2                 0      0       0       3        0.0%
STACK                0      0       0       3        0.0%
BITSFR3              0      0       0       4        0.0%
SFR3                 0      0       0       4        0.0%
ABS                  0      0      93       4        0.0%
BITBANK0            50      0       0       5        0.0%
BITSFR4              0      0       0       5        0.0%
SFR4                 0      0       0       5        0.0%
BANK0               50     12      48       6       90.0%
BITSFR5              0      0       0       6        0.0%
SFR5                 0      0       0       6        0.0%
BITBANK1            50      0       0       7        0.0%
BITSFR6              0      0       0       7        0.0%
SFR6                 0      0       0       7        0.0%
BANK1               50      0      3D       8       76.2%
BITSFR7              0      0       0       8        0.0%
SFR7                 0      0       0       8        0.0%
BITBANK2            50      0       0       9        0.0%
BITSFR8              0      0       0       9        0.0%
SFR8                 0      0       0       9        0.0%
BANK2               50      0       0      10        0.0%
BITSFR9              0      0       0      10        0.0%
SFR9                 0      0       0      10        0.0%
BITBANK3            50      0       0      11        0.0%
BITSFR10             0      0       0      11        0.0%
SFR10                0      0       0      11        0.0%
BANK3               50      0       0      12        0.0%
BITSFR11             0      0       0      12        0.0%
SFR11                0      0       0      12        0.0%
BITBANK4            50      0       0      13        0.0%
BITSFR12             0      0       0      13        0.0%
SFR12                0      0       0      13        0.0%
BANK4               50      0       0      14        0.0%
BITSFR13             0      0       0      14        0.0%
SFR13                0      0       0      14        0.0%
BITBANK5            50      0       0      15        0.0%
BITSFR14             0      0       0      15        0.0%
SFR14                0      0       0      15        0.0%
BANK5               50      0       0      16        0.0%
BITSFR15             0      0       0      16        0.0%
SFR15                0      0       0      16        0.0%
BITBANK6            10      0       0      17        0.0%
BITSFR16             0      0       0      17        0.0%
SFR16                0      0       0      17        0.0%
BANK6               10      0       0      18        0.0%
BITSFR17             0      0       0      18        0.0%
SFR17                0      0       0      18        0.0%
BITSFR18             0      0       0      19        0.0%
SFR18                0      0       0      19        0.0%
DATA                 0      0      93      19        0.0%
BITSFR19             0      0       0      20        0.0%
SFR19                0      0       0      20        0.0%
BITSFR20             0      0       0      21        0.0%
SFR20                0      0       0      21        0.0%
BITSFR21             0      0       0      22        0.0%
SFR21                0      0       0      22        0.0%
BITSFR22             0      0       0      23        0.0%
SFR22                0      0       0      23        0.0%
BITSFR23             0      0       0      24        0.0%
SFR23                0      0       0      24        0.0%
BITSFR24             0      0       0      25        0.0%
SFR24                0      0       0      25        0.0%
BITSFR25             0      0       0      26        0.0%
SFR25                0      0       0      26        0.0%
BITSFR26             0      0       0      27        0.0%
SFR26                0      0       0      27        0.0%
BITSFR27             0      0       0      28        0.0%
SFR27                0      0       0      28        0.0%
BITSFR28             0      0       0      29        0.0%
SFR28                0      0       0      29        0.0%
BITSFR29             0      0       0      30        0.0%
SFR29                0      0       0      30        0.0%
BITSFR30             0      0       0      31        0.0%
SFR30                0      0       0      31        0.0%
BITSFR31             0      0       0      32        0.0%
SFR31                0      0       0      32        0.0%


Microchip Technology PIC Macro Assembler V2.20 build 20200408173844 
Symbol Table                                                                                   Sun Nov 08 19:25:40 2020

                            _d 0042                              _e 0041                              _i 0040  
                            _m 007B                              _p 003F                             _D9 00AF  
                           _GO 04E9                             _WR 0CA9                            _D14 00A0  
                          l210 04E9                            l212 04DC                            l215 04F3  
                          l224 04BC                            l225 04D2                            l241 0480  
                          l226 04D3                            l242 0485                            l251 0379  
                          l341 04FC                            l422 02A7                            l344 0513  
                          l601 0530                            l339 0509                            l427 02C6  
                          l372 057B                            l428 02AE                            l375 0571  
                          l369 054D                            l909 03B6                            l919 0427  
                          l599 0516                            _GIE 005F                            _RD4 007C  
                          _RD5 007D                            _RD6 007E                            _RD7 007F  
                          _ISR 0004                            u810 0505                            u730 04E5  
                          u811 0504                            u731 04E4                            u820 0513  
                          u740 04F3                            u821 0512                            u741 04F2  
                          u750 04C3                            u910 03A2                            u751 04C0  
                          u911 03A1                            u825 050F                            u745 04EF  
                          u905 0394                            u770 04D2                            u930 03B2  
                          u771 04D1                            u931 03B1                            u915 039E  
                          u764 04C5                            u780 0480                            u940 03FA  
                          u860 051D                            u781 047F                            u925 03A8  
                          u941 03F9                            u861 051B                            u870 0383  
                          u871 0382                            u960 040A                            u961 0409  
                          u890 0393                            u970 0414                            u891 0392  
                          u971 0413                            u955 03FE                            u885 0387  
                          u990 0423                            u991 0422                            u975 0410  
                          u985 0419                            _dat 004D                            wreg 0009  
                         ?_ISR 0070                   _BAUD2CONbits 0497                           l2001 03A6  
                         l2003 03A7                           l2011 03F3                           l2005 03AC  
                         l2021 040A                           l2013 03FA                           l2007 03B2  
                         l2023 0414                           l2015 03FD                           l2025 0418  
                         l2017 0402                           l2027 041D                           l2019 0406  
                         l2029 0423                           l2301 0170                           l2311 01DB  
                         l2303 018F                           l2401 02D9                           l2321 0256  
                         l2313 01FB                           l2305 0197                           l2403 02DF  
                         l2331 025D                           l2323 0258                           l2315 021B  
                         l2307 019B                           l2405 02E0                           l2341 026B  
                         l2333 0265                           l2325 0259                           l2309 01BB  
                         l2317 0230                           l2351 0280                           l2343 0273  
                         l2335 0267                           l2327 025B                           l2319 0252  
                         l1801 04D4                           l2361 0291                           l2353 0281  
                         l2345 0275                           l2337 0268                           l2329 025C  
                         l1811 04E5                           l1803 04D8                           l2371 029A  
                         l2363 0294                           l2355 0289                           l2347 0276  
                         l2339 026A                           l2291 0161                           l1813 04B2  
                         l2381 02A4                           l2373 029C                           l2365 0296  
                         l2357 028B                           l2349 027E                           l2293 0163  
                         l1823 04C6                           l1815 04B9                           l1831 045E  
                         l2391 02BB                           l2383 02AC                           l2375 029D  
                         l2367 0297                           l2359 028E                           l2295 0164  
                         l1921 04F4                           l1809 04DD                           l1825 04C8  
                         l1817 04BB                           l1841 0475                           l1833 0462  
                         l2393 02C0                           l2377 029E                           l2369 0299  
                         l2297 0165                           l2289 015E                           l1931 0505  
                         l1923 04F8                           l1827 04CC                           l1843 047A  
                         l1835 0468                           l1851 02EC                           l2395 02CA  
                         l2379 02A0                           l2299 016A                           l1933 0531  
                         l1845 0481                           l1837 046E                           l1829 045B  
                         l1861 030A                           l1853 02F2                           l1941 0575  
                         l2397 02CB                           l2389 02B3                           l1935 053D  
                         l1839 0471                           l1871 0328                           l1863 030E  
                         l1855 02FA                           l1847 02E7                           l1943 0576  
                         l1951 0564                           l2399 02D5                           l1929 04FD  
                         l1937 0540                           l1881 034A                           l1873 0335  
                         l1865 0317                           l1857 02FC                           l1849 02E8  
                         l1945 057A                           l1953 056B                           l1891 0368  
                         l1883 0353                           l1875 0337                           l1867 031D  
                         l1859 0308                           l1939 0572                           l1955 056C  
                         l1947 0560                           l1893 0371                           l1885 0355  
                         l1877 033B                           l1869 0326                           l1981 051D  
                         l1957 056D                           l1949 0563                           l1895 0377  
                         l1887 0362                           l1879 0344                           l1991 0386  
                         l1959 056F                           l1889 0364                           l1993 038B  
                         l1985 037A                           l1995 038F                           l1987 037D  
                         l1997 0393                           l1989 0383                           l1999 03A2  
                         _ADIF 008E                           _T0IE 005D                           _T0IF 005A  
                         u1330 0197                           u1331 0196                           u1340 02AC  
                         u1341 02AB                           _LATA 010C                           u1350 02B3  
                         _LATB 010D                           u1351 02B2                           _LATC 010E  
                         u1360 02C6                           _LATD 010F                           u1361 02C5  
                         _LATE 0110                           u1370 02CA                           u1371 02C9  
                         u1380 02DF                           u1381 02DE                           _PIE1 0091  
                         _PIE4 0094                           _PEIE 005E                           _PIR1 0011  
                         _PIR4 0014                           _TMR0 0015                           _TXIF 008C  
                         _WPUB 020D                 ??_eeprom_write 0071                           _Init 0531  
                         _main 015E                           fsr0h 0005                           fsr1h 0007  
                         indf0 0000                           fsr0l 0004                           indf1 0001  
                         fsr1l 0006                           btemp 007E                           start 0125  
                        ??_ISR 0078    __end_of_TM1721_DisplayClear 0486                          ?_Init 0070  
                        ?_main 0070                          _EEADR 0191                          _DELAY 04F4  
                        _T1CON 0018                          _RC2IF 00A5                __end_of___lwdiv 03B7  
                        i1l401 00CB                          i1l403 00E2                          i1l405 00F9  
              __end_of___lwmod 0428                          i1l622 04A0                          i1l382 0027  
                        i1l625 04AF                          i1l618 0487                          i1l619 0487  
                        i1l388 0056                          i1l397 00B4                          i1l399 0123  
                        i1l909 03F2                          _RCREG 0199                          _RCSTA 019D  
                        _WFLAG 004C                          _TMR1H 0017                          _TMR1L 0016  
                        _SPBRG 019B                          _PORTA 000C                          _PORTB 000D  
                        _PORTF 028C                          _TRISA 008C                          _TRISB 008D  
                        _TRISC 008E                          _TRISD 008F                          _TRISE 0090  
                        _TRISF 030C                          u83_20 048C                          u83_21 048B  
                        u84_20 049F                          u84_21 049E                          u85_20 04AE  
                        u85_21 04AD                          _TXREG 019A                          _TXSTA 019E  
             ?_TM1721_Delay_ms 0056                          _temp1 0037                          _temp2 0035  
                        _tempH 007C                          _tempM 0031                          _temph 002F  
                        main@i 0067                          status 0003                          wtemp0 007E  
               _Operation_Type 0048             __size_ofi1___lwdiv 003C                __initialization 0127  
                 __end_of_Init 054E                   __end_of_main 02E5                         DELAY@j 0059  
                       DELAY@k 005B                         DELAY@n 0056                         ??_Init 0056  
                       ??_main 0064                         ?_DELAY 0056                         _ADCON0 009D  
                       _ADCON1 009E                         _ADRESH 009C                         _ADRESL 009B  
                       _EEDATA 0193                         _EECON1 0195                         _EECON2 0196  
                       _APFCON 011D                         _ANSELA 018C                         _ANSELE 0190  
                       _BORCON 0116                         u100_20 03BF                         u100_21 03BE  
                       u101_25 03C3                         u102_20 03CF                         u102_21 03CE  
                       i1l2041 03C7                         i1l2033 03B7                         i1l2201 0046  
                       i1l2051 03E3                         i1l2043 03CB                         i1l2035 03B9  
                       i1l2211 0070                         i1l2203 004E                         i1l2053 03E8  
                       u103_25 03D0                         i1l2045 03CF                         i1l2037 03BF  
                       i1l2221 009A                         i1l2213 0080                         i1l2205 005B  
                       i1l2047 03DE                         i1l2039 03C2                         i1l2055 03EE  
                       i1l2231 00B2                         i1l2223 00A0                         i1l2215 0086  
                       i1l2207 0060                         u104_20 03DE                         u120_20 005B  
                       i1l2049 03E2                         u104_21 03DD                         i1l2241 00CE  
                       i1l2233 00B7                         i1l2225 00A4                         i1l2217 0090  
                       i1l2209 006E                         u120_21 005A                         i1l2219 0096  
                       i1l2227 00A9                         u104_25 03DA                         i1l2261 0109  
                       i1l2253 00F2                         i1l2245 00DB                         i1l2237 00C4  
                       i1l2229 00AE                         i1l2181 0013                         i1l2173 0006  
                       i1l2263 010B                         i1l2255 00F4                         i1l2247 00DD  
                       i1l2239 00C6                         i1l2191 0032                         i1l2183 0018  
                       i1l2175 000A                         u121_20 0060                         u113_20 000A  
                       i1l2257 00FC                         i1l2249 00E5                         u121_21 005F  
                       i1l2193 0038                         i1l2185 001D                         i1l2177 000B  
                       u113_21 0009                         i1l2267 0110                         i1l2195 003D  
                       i1l2187 0023                         i1l2179 000E                         u105_25 03E4  
                       i1l2197 003E                         i1l2189 0030                         i1l2199 0042  
                       u106_20 03EE                         u130_20 0108                         u122_20 006E  
                       u114_20 0013                         u106_21 03ED                         u130_21 0107  
                       u122_21 006D                         u114_21 0012                         u123_20 0086  
                       u115_20 0018                         i1l1961 048C                         u123_21 0085  
                       u115_21 0017                         i1l1971 04A3                         i1l1963 0495  
                       i1l1973 04A7                         i1l1965 0499                         i1l1975 04A8  
                       i1l1967 049B                         i1l2679 0115                         u124_20 0090  
                       u116_20 001D                         i1l1977 04A9                         i1l1969 049F  
                       u124_21 008F                         u116_21 001C                         i1l1979 04AE  
                       u124_25 008C                         u125_20 00A0                         u117_20 0023  
                       u125_21 009F                         u117_21 0022                         u126_20 00AE  
                       u118_20 0030                         u126_21 00AD                         u118_21 002F  
                       u127_20 00C3                         u119_20 0038                         u127_21 00C2  
                       u119_21 0037                         u128_20 00DA                         u128_21 00D9  
                       u129_20 00F1                         u129_21 00F0                         _OSCCON 0099  
                       _TMR0IF 005A                         _TMR1IE 0488                         _TMR1IF 0088  
                       _WDTCON 0097                         _TX2STA 0496                         _TRISG1 1869  
                       _TRISG2 186A                     _Time_Count 002B           __size_of_eeprom_read 001D  
                 ?_timer0_Init 0070                   ?_timer1_Init 0070                      ??___lwdiv 005A  
                    ??___lwmod 0062                         _countM 0029           TM1721_DisplayClear@h 0061  
         TM1721_DisplayClear@p 0060                         _sendo2 0044                         _tempM0 0033  
                       _tempHD 002D           __end_of_eeprom_write 04B0              __end_ofi1___lwdiv 03F3  
                 __pdataCOMMON 007C        __end_of__initialization 015A                eeprom_read@addr 0059  
                __end_of_DELAY 0514  __size_of_TM1721_Write_StringS 0095                 __pcstackCOMMON 0070  
                 __pidataBANK0 054E                   __pidataBANK1 0428        TM1721_Write_StringS@dat 005F  
                      ??_DELAY 0058                    _SciSendFlag 0039                 _OPTION_REGbits 0095  
            eeprom_write@value 0070                     __pbssBANK0 0020                     __pbssBANK1 00D1  
               _SciReceiveFlag 003A                     __pmaintext 015E                     __pintentry 0004  
                      _SP2BRGL 0493                        _KEY_VAR 00C8                        _OSCTUNE 0098  
                      _Key_arr 0020                        _Intrcnt 003D          __size_of_eeprom_write 002A  
                      ___lwdiv 037A                        ___lwmod 03F3           __size_of_timer0_Init 000A  
         __size_of_timer1_Init 0012                        __ptext1 0560                        __ptext2 0572  
                      __ptext3 0514                        __ptext4 03F3                        __ptext5 037A  
                      __ptext6 02E5                        __ptext7 0459                        __ptext8 04B0  
                      __ptext9 04D4                   __size_of_ISR 0121                      _T1CONbits 0018  
            i1___lwdiv@divisor 0070              i1___lwdiv@counter 0077   __size_of_TM1721_DisplayClear 002D  
                      _tempM60 003E                        _ret_var 0043                        clrloop0 0583  
                _receive_count 003C           end_of_initialization 015A       __size_of_TM1721_Delay_ms 0020  
                      init_ram 057C                   _eeprom_write 0486                     _send_count 003B  
                      initloop 057D                      _PORTBbits 000D                      _PORTFbits 028C  
                    i1___lwdiv 03B7                  ??_eeprom_read 0056               TM1721_Delay_ms@j 0059  
             TM1721_Delay_ms@k 005B               TM1721_Delay_ms@n 0056                  __pidataCOMMON 0588  
 __end_of_TM1721_Write_StringS 037A            start_initialization 0127                    __end_of_ISR 0125  
                   ?i1___lwdiv 0070              _TM1721_Write_Byte 04B0             ?_TM1721_Write_Byte 0070  
            ??_TM1721_Delay_ms 0058            __end_of_eeprom_read 0531                    __pdataBANK0 0044  
                  __pdataBANK1 00A0            ??_TM1721_Write_Byte 005C                    __pbssCOMMON 0079  
                    ___latbits 0002                  __pcstackBANK0 0056               eeprom_write@addr 0073  
    __end_of_TM1721_Write_Byte 04D4                      _caiji_val 004A            _TM1721_DisplayClear 0459  
             ___lwdiv@dividend 0058                       ?___lwdiv 0056                       ?___lwmod 005E  
               __size_of_DELAY 0020           ?_TM1721_DisplayClear 0070               ___lwdiv@quotient 005B  
                  ??i1___lwdiv 0074                      _receiveo2 00D1                      clear_ram0 0582  
                  _eeprom_read 0514                       _SEG_CODE 00BE           _TM1721_Write_StringS 02E5  
                ??_timer0_Init 0056                  ??_timer1_Init 0056          ??_TM1721_DisplayClear 005F  
                  _global_num1 0025                    _global_num2 0023     __size_of_TM1721_Write_Byte 0024  
                     _KeyValue 0027                     _EECON1bits 0195                       _TimeFLAG 0079  
        ?_TM1721_Write_StringS 0070               __size_of___lwdiv 003D               __size_of___lwmod 0035  
          __end_of_timer0_Init 057C            __end_of_timer1_Init 0572                ___lwdiv@divisor 0056  
              ___lwdiv@counter 005D                       __ptext10 0531                       __ptext11 04F4  
                     __ptext13 03B7                       __ptext14 0486                _TM1721_Delay_ms 04D4  
           i1___lwdiv@dividend 0072                  __size_of_Init 001D                  __size_of_main 0187  
                     _read_var 007A                     _RC2STAbits 0495                       int$flags 007E  
           i1___lwdiv@quotient 0075                     _INTCONbits 000B                       intlevel1 0000  
             ___lwmod@dividend 0060         ??_TM1721_Write_StringS 005F                    _timer0_Init 0572  
                  _timer1_Init 0560                     _OPTION_REG 0095                ___lwmod@divisor 005E  
      __end_of_TM1721_Delay_ms 04F4                ___lwmod@counter 0063                     _TX2STAbits 0496  
                ?_eeprom_write 0070                     _STATUSbits 0003                   ?_eeprom_read 0070  
         TM1721_Write_Byte@dat 005D             TM1721_Write_Byte@i 005E  
